	.syntax unified
	.cpu cortex-m3
	.fpu softvfp
	.eabi_attribute 20, 1
	.eabi_attribute 21, 1
	.eabi_attribute 23, 3
	.eabi_attribute 24, 1
	.eabi_attribute 25, 1
	.eabi_attribute 26, 1
	.eabi_attribute 30, 4
	.eabi_attribute 34, 1
	.eabi_attribute 18, 4
	.thumb
	.file	"failsafe.c"
	.text
.Ltext0:
	.section	.gnu.lto_.jmpfuncs.f5fa6bc6f00f3566,"",%progbits
	.ascii	"x\234m\314\271\011\200`\024\003\340\357\375\202Zx\237"
	.ascii	"\253\271\202\340\020\216\256\205\240\205i\022r%\311"
	.ascii	"\037\216\207{29\005\221\266\330\303YR\276\253\217\373"
	.ascii	"\221\376b\252Pg\215Vw\037\017\306\230\230YX\357\356"
	.ascii	"\005\247:\006\254"
	.text
	.section	.gnu.lto_.inline.f5fa6bc6f00f3566,"",%progbits
	.ascii	"x\234u\220=\016\202@\020\205\337\214\313b\004\004\004"
	.ascii	"5\332\220x\000\217\340\021h=\202\2471\341\000\026\024"
	.ascii	"\026\026\026V\326Z\333\030\343\011lh=\202\263`\210\210"
	.ascii	"n\361v\363\315\233\235\037\006\343\327yPu\207@\340\023"
	.ascii	"x\232]\010:OJw\007\356D\330\340Pp\3154l\343SyR#vDl\204"
	.ascii	"3\341q\276\241f\300\010\241\2135\235Y\0147:\026\021"
	.ascii	"\364\276r(OP\226f);\322\010\365\310\370?_\364\326\022"
	.ascii	"\374\210\377\025\252\012g\251\013\313\024\341\253_\367"
	.ascii	"E=\021\017\266\026\336=-j\336\207\352|Y\3756\012\332"
	.ascii	"(l\243\001,\365\265\247\310T4\235\311f\365s^q\311Q&"
	.ascii	"\030\377\331\353\020N$\334\275/\233|\0047\026\336\337"
	.ascii	"\256\232|\014[\246\347\362\377\335\307\270x\001]=*\031"
	.text
	.section	.gnu.lto_.pureconst.f5fa6bc6f00f3566,"",%progbits
	.ascii	"x\234cb`bPf\200\000A\006IfI6\011vI\016K\036\011^\011"
	.ascii	">\026~\026\001\026A\011!\026a\011\021\011Q\0111\011"
	.ascii	"q\011\000/#\002\217"
	.text
	.section	.gnu.lto_failsafeReset.f5fa6bc6f00f3566,"",%progbits
	.ascii	"x\234\235\223\277K\303P\020\307\357^~\264\265\025\352"
	.ascii	"XP(\212\012V\032\377\002\027'\367\012\352\026\253\215"
	.ascii	"\001[A\335\034|m\025j\247\342TtQ\334\004q\355T\034\034"
	.ascii	"tPtsJ\213\177\200\243\024\021\343\275\244\211\330:\224"
	.ascii	"\034\344\336\345\336}?\271{\2740`\320k\011z&e\2009Z"
	.ascii	"Q\002d\265'\200b\230!\212\000\020\016\030\036\254\240"
	.ascii	"(\305q\270\340\374\244}d5\023\325\363R\215\177\3336"
	.ascii	"\232H\320$B\026a\231^0\351,L\376\373\225\033v\333\266"
	.ascii	"\355\257\353\347;\034a\240\343\005\261$0Q\222\311\311"
	.ascii	"\212p\252p!r\012\325+p\310y-\011\002K\226!/\332YB&V"
	.ascii	"\351\021J\017uk^\307K\2526\220\235\301i\221\3638\365"
	.ascii	"\262\017\237\274\"\"5\357(E3j\267\011R\255z\022)\005"
	.ascii	"3&\206HH\005aB\210B\267l\015\341W\360^\376\214y\032"
	.ascii	"\231d\"Y\256J^J\241\254P\312\353Ny\271R\376`\336\236"
	.ascii	"J\333\316\336=z\254\246\277\0312D[\224\\t3)\270\342"
	.ascii	"dK&F\374a\206\374a\242y\304\3560\321n\217n\223\004r"
	.ascii	"(\215\2065\033\020\344^\011\221\211tgn\274Z\323\001"
	.ascii	"aR?\254cM\005\204\311\375\260z+\035\020\246\364\303"
	.ascii	"\032\255\240g\246\376sf-- ,\364\317\231\265F{a\261\301"
	.ascii	"`a\037\026\363\317\354\255#\365\322\206\007\243E|\332"
	.ascii	"\260\010^\240\330>\236pY\236eHD\277\244\270Ecimw'\253"
	.ascii	"\345u\263\240\345\266LcsO\313\351\346\326\256\236\333"
	.ascii	"Hg!\356\305\013\333\205\234i\244\347~\0001\241\0029"
	.text
	.section	.gnu.lto_failsafeApplyControlInput.f5fa6bc6f00f3566,"",%progbits
	.ascii	"x\234\215RMh\023Q\020\376\346\275\335d\263I\304\342"
	.ascii	"\251\007!\024\004\261\230\350I,V\017\236\274[Po1\230"
	.ascii	"u\241\251\320z\020<\364%\033h\360\322P\274\250\227\026"
	.ascii	")\361 z\025\021\214?\007\003\255\340Mo9IOE\360\242R"
	.ascii	"\\\347\355\333\037\353\305>\330\235\331\231\371\276"
	.ascii	"7\363\355\010\010\374{\316\361\023H\340<[\312\201D\377"
	.ascii	"#\320v\004Y\306\221\306y\343XBn\315@\271\366\373#P%"
	.ascii	"\233H\207AX\026\322\262i\371*i69\205\015\245\326\306"
	.ascii	"\233\341\216|p\177\330]W{aH\344\023\337\\!4\010W\370"
	.ascii	"\203*\221\021\326\376V\014v\030\256\014&\357\255w\372"
	.ascii	"\3527C}\222\002\323\007B\366\207?WV'U\206\264\004f\377"
	.ascii	"\207|.\206\3430|\365\272\373\366x\231P\247M\232\202"
	.ascii	"\305v\203\255\015\237\354\034\277rN\234)\260}\314\326"
	.ascii	"\325\231\242\3160\205\215._^\201\276\211\317e~\263D"
	.ascii	"s$\330\310\021:\343\275w\371\270\306\260\200Y\006d#"
	.ascii	"rt@7\226\3665G\022[3r\033\235\321\013V\261NO\270\324"
	.ascii	"#\353\021\036\266\225:\314R\336\305/\325\323^\276\025"
	.ascii	"\335\250\341\371\030\315\260k\011\304\236\306\011\237"
	.ascii	"\034\006rA\201)t\241)\273N\310\000\273\3013J09O7\306"
	.ascii	"\301K&r\022O\025\237\013>\271i\003\305\264\201R\213"
	.ascii	"(n\240\024\261y\224\020{Z\233m\004\275\340\373\352l"
	.ascii	"\302\356p>\032VW\215 L\334\210\300\331D\000\013\274"
	.ascii	"[Z:\007i\222\021\037\320\375\332.&\\\206([\350/\240"
	.ascii	"XG\261#\231L~\316k.[\377\005-\346\217\360\233et\367"
	.ascii	"\250\220\316\"\323Y\312-\022\361,\345}b\032\210\373"
	.ascii	"\267\230\207\230B\027\312XL\312\000\273\301KJ0E\206"
	.ascii	"%b\01621\317\034P\314h\034\231\314\307t\300'\264\307"
	.ascii	"\275c\351\372\300,\034\361\214\272\367\243\325\332\322"
	.ascii	"b\243\326\252\373\013\265\346\274\357\335\274]k\326"
	.ascii	"\375\371\245z\363F\265\001w\361\316\305[\013M\337\253"
	.ascii	"\236\235H\302q\340\364)\362\377\000\321\274\334\221"
	.text
	.section	.gnu.lto_failsafeShouldHaveCausedLandingByNow.f5fa6bc6f00f3566,"",%progbits
	.ascii	"x\234cb`b@\007\222@\374\030\210\345\201\230\221\231"
	.ascii	"\201\221i\3029\006\206F\016&FF\020\203\201\221\241\236"
	.ascii	"\211\261>\222\021\254v=\323\201\007\377\377\257\333"
	.ascii	"q|\301=FF6f\206LF\006\026\020\301\012$@*X\031Z\032\032"
	.ascii	"&(00$\203\325\207\000I\220!\241\214L \232\371<C\363"
	.ascii	"\203\273\217\271\022\031\0272\2622\24432W3\374j\350"
	.ascii	"h\020\310ddJf\204X\220\011t\001\303Y\206\246[\033\204"
	.ascii	"a\252X\264\031\2642\031Yf3\314jl\000\251e\205\353b\313"
	.ascii	"\005k\212`\0042\301\272\223\030a\236:\313\320|\266Y"
	.ascii	"\014f\004+\320.\240A\014\014\027\031\030\341b\020\205"
	.ascii	"!@\213\201N\003\005\213\254\236~qQ\262~nbf\236~ZNfz"
	.ascii	"F\211~ZbfNqbZ\252^2\003\000\377\276?\214"
	.text
	.section	.gnu.lto_failsafeActivate.f5fa6bc6f00f3566,"",%progbits
	.ascii	"x\234\225R;l\023A\020\235\331\363\347\354s\3543I\204"
	.ascii	"\"\024a\221.\221\354\224\364T\364\211\004t\307\205;"
	.ascii	"V\262\215D\350Rd\035\273\260\"E\262\"\032>\005\226E"
	.ascii	"C\003%\015\222E\025\012\010t\021\325\211\"J\001)Qd\""
	.ascii	"\231\231;\357%q\032g\245\233\331\235}\357\335|V\200"
	.ascii	"\200\3615G\337\216\001\260L\036\015@\321\371\006\320"
	.ascii	"0\005\"o\000aS\340\346}d(\336\202\256R\273\301\333\177"
	.ascii	"\375\271\027\317\373\2557\352t8D\224H\262%\004\027\341"
	.ascii	"\036\035\260\024:\221\270\370\237\367\242\037\014\207"
	.ascii	"\257?\265>\337\234N\201D#\015\016vI\322\244C\"C&\231"
	.ascii	"ec\361]\216M\236L\252@&m\263)\362\221\204\222\320R\252"
	.ascii	"S\002\376\037\255\025\262\234\351*\012\366\306W\330"
	.ascii	"\372x0\370n8\330\303$,\301;EkU\242\371\012^6\224\262"
	.ascii	"%f6`\240\332\274\313\326B\011N7\033&\371\020\243d9b"
	.ascii	"\362\236\325N\006{\227\324\254\311\3240V\263\270\363"
	.ascii	"\373\320\012~\367\254H\014 f\346\334s\310)\305\035\311"
	.ascii	"3\272\031\374\351\335\210\320>\246bx\301\305h\216\022"
	.ascii	"\3550\305/\035O\243\322qbg\362\305Z(\317\342\305\321"
	.ascii	"4\210\364@S\314%X\224x\215\210\004\230&\011\006\302"
	.ascii	"\250\002qF8n\376\235\322\234\014\3218\330\3346t(KQf"
	.ascii	"&\3274\374W|g\371\334\022\202\267\343P\216*\242\213"
	.ascii	"(\377\017\327\307\033<3Y\203\215\320\223Z\250\363\363"
	.ascii	"hC\313\347\303\242f'SI\234/\362\020\265F\301\3471\\"
	.ascii	"\310\332\246(3\323\243\307q\034\337\024\375\3210\356"
	.ascii	"\216\227r\245$|\036\321\017h\004'\013\372\231Dk\205"
	.ascii	"fH\357\233\3471_\256\254?u+5G\326+^U\372\217\237U<G"
	.ascii	"V\327\035\357Q\331\005[\357\357<\251{\322/\337\376\017"
	.ascii	"Z8\333\244"
	.text
	.section	.gnu.lto_failsafeUpdateState.part.0.f5fa6bc6f00f3566,"",%progbits
	.ascii	"x\234\255Y{l\224\307\021\337\335\357\336w\276\263\357"
	.ascii	"\354;?\317\3477\266\211\315\253E\255\252JQ\253J\371"
	.ascii	"\003U* \221\376w\234\217\343\032l\022\333JSE\025\237"
	.ascii	"\037\021\004Cp\021\264@\223\206\204\"\003\205\342\020"
	.ascii	"\021L \021\264\211\210y*\020E\274kQ\205\324\0245%Q\303"
	.ascii	"\303%\356\314~\273{g\337q9\273\334\037\263\337\356\314"
	.ascii	"ovvfvw\326f\204\221\311\277\3710t\241\204\220O\340\233"
	.ascii	"\316$\264\261\377,|4R\306[\306\2645uDw\231\220:4j\302"
	.ascii	"\321.\233\211\2329\333l\255\335\354$\272\315\302i>\247"
	.ascii	"\001N\203\234\226sZc\3100\353'~P\222{t>(\2642\333\025"
	.ascii	"\007\364\354\007\377J\240k\243vC\263\2359\370T.>\255"
	.ascii	"\20399\306\3051NZk\010\271X\316\272\023\010\253\355"
	.ascii	"\265\0027\207\271\271\224\207K\271\245\224G~\344\262"
	.ascii	"<\256\323\313u\346Q\2371\354\225\037>)\230\317\012P"
	.ascii	"\205\303\217\352\\\005r\330/?\002\254\220+*\342\212"
	.ascii	"\012i\2211\\\304\212\371\374%|\376bZb\014\227\2602."
	.ascii	"]\312\245K\215\236\253\226\217\225I\225A\371Q\316B|"
	.ascii	"M\216j\\\223+\304*\214._\242\253\202Uq\\%\327Q\311\252"
	.ascii	"\222\231URG\265\374\250\221\037\265\254\316\220\234"
	.ascii	"\301%\353\214\270=9\203\325\277\033\204\321\206O\233"
	.ascii	"a\264\2366\030\322\015\224\342\007\241dU#\323Lf\213"
	.ascii	"\325fw8]9nOn\236\327\227_\340\017\024\026\025\227\224"
	.ascii	"\226\005\313C\025\225U\3255\265u3\352\033\350\252\247"
	.ascii	")&\222\273\222\274\241\353\333F><\360V`\355\210\336"
	.ascii	"\257\1773>N\343\310\212P\262\004\276\250\2157\214NL"
	.ascii	"@\003\246\377y\227\256m\327\377;>\256e\213\331x\354"
	.ascii	"\302\251\365\001=i*FB4;\344\241\276\315\311H\215\221"
	.ascii	"\346,\221\007S\346\374~\226\310\003\247\234\203\372"
	.ascii	"\032}||\025\207-\310\02268\021\2660K\330\3576\356\013"
	.ascii	"\234L\330ib\010K\203l\245)\320k\033^\237\004}.[\350"
	.ascii	"\335\276O\351\326M\307zy$)\010\232\031Y\225\000\207"
	.ascii	"\014\260)\255\305\3779\365\001\335\262\351X\267\302"
	.ascii	"Z\030\351\247\011p\256\001f\351\300\372\201]\272]\246"
	.ascii	"\217\225\221\2354\313I\017\366\035*Z\273\275[\256\325"
	.ascii	"\306\310`\266\320\267\373\376\230\234\350\340\246\023"
	.ascii	"\364\333\202\263\237\351#\343\343[\0178@,N\355\014\010"
	.ascii	"\321H\230\036\246\225\304\004\035\223\031:\273\241c"
	.ascii	"\201\366\020\264V\030\264\331\2403\000\035;t\034\016"
	.ascii	"\350\034\204\216\023\332\267\241u\301\2403\007\305\334"
	.ascii	"0\362\026\214x\240c\311\005\342\312C\342E\236\017I\276"
	.ascii	"\020(\300\231\3748\022@R\210V\024\011+\212\241\335\017"
	.ascii	"m\011rJ\221\224!\011\")G\022B\351\012a^%\216T\011h5"
	.ascii	"\264\373\240\255\301\301Z$uHf \251\027S7\240m\215h\326"
	.ascii	"L$O \257\011I3\010\354\000\201Y\320\356\204v\266h\347"
	.ascii	"\210v\256\340\317\023}\370\231I\257\256\367\207\302"
	.ascii	"\364O\3207\334f\370\311\2200\344\371Q\002\277E@\273"
	.ascii	"\254\3204B\243-\246\014\2333\244\373\362\226\035\037"
	.ascii	"kB\223T\251\377\375\267p#\206\351\021j\0064\207\307"
	.ascii	"(\000\367\350\272~l\353\332\2628\315\371=\331\326\245"
	.ascii	"\353\271q\352~\221<\200\355\011_\236V.\212a\367\360"
	.ascii	"`/\305n\230\276\007Z\340w\206\364\234\353\361\207\351"
	.ascii	"Q\350\306(\003\205(\231\2032\303\244{\344\342g\026c"
	.ascii	"Bc9\006\242{x\350\235\343&c<F55i\256\2324\317\330\204"
	.ascii	"\250*O\344\030LtD\223\030\023\300\220i2\031\234\213"
	.ascii	"=m\222e\006.g\021n\002\223\323\243\037ch3\316\177\361"
	.ascii	"\235;\026\011\260\250\371\275j~_+eb~_\272\371\255\000"
	.ascii	"C\246\015\\\027J1\301\006\002\234;\311\204\001n\202"
	.ascii	"\315\360\314\225\017\035r\034\303\212\362\032\312\177"
	.ascii	"Dzo\037?\322\347\222\312\330\022\343\272I\374\026\203"
	.ascii	"\340qMC%\327_r\246(\321\224\230\011\223\201\220Kd\266"
	.ascii	"\320\316\216^\331E\205\220v\373\312 E)3Y\177\226\240"
	.ascii	"6\033\021jbt\216a\343\355\227\334R\375\016\241^\206"
	.ascii	"\360\362\305#w\224;\354\215\244!N\363\263\313\036\271"
	.ascii	"\230\323d\213\276%\241b=Y\327\325\253\037\273s\336\035"
	.ascii	"\247\005\310o1\374A\004\343\272\023\306Q\217\303`\232"
	.ascii	"\222\231_\273%\223r\2469\231\271\315#\231\2143-\311"
	.ascii	"\314\313\212\251q\2465\231\371@1M\234iKf\276\353\225"
	.ascii	"L3g\332U\200.\22191:\333DctV\035w\261\205lvj\247\240"
	.ascii	"\0241V\313\215\347q\276\323\347Wy\233&\316V\362\007"
	.ascii	"M\343\371\372\376p\241\024t(7[\225\233\375\255\334-"
	.ascii	"\250\302\257\362\265\373)\011q*H@A\012[\251S@\012\005"
	.ascii	"\344\0341K\204K\311\025E\250q7\301\314\240)N\213\321"
	.ascii	"\366\017>\357zN\311\242\216\022:\301r\033\371\236v\216"
	.ascii	"\364\214\214\355\\*\305r\224\312\322\210\010m\234\226"
	.ascii	"\031\373\261\377\031)\345V\246\232\225|\260\225\272"
	.ascii	"\204\251\301\304\352~.!\036\236}\001\005,\007-(k\026"
	.ascii	"\011\307\022\230\177\365\354\361HXn\014S\022v\356Z\225"
	.ascii	"\204y0\212HW\213\024?\240\366\2417\206G\021\210\257"
	.ascii	"Q\342>X\0240\214%\014\006\215a\343<\325_\0035\336\354"
	.ascii	"6\204&\334\353\223\316\263c\330y~<\354+U\207J\232\374"
	.ascii	"p\220s\224\347\307`\271\024\313\237\272\377\012\270"
	.ascii	"\377r\223\375\227\237\354?Y'\240E]\207\251\202\251S"
	.ascii	"6a\220\223\374\200\207}\315\200\310kB\224\025\241\210"
	.ascii	"\220\216\323\012n\300\320\320\215Qs\212\323\246t\212"
	.ascii	"\340H\276f\254g\350\342\215K\205\323\215\201Y\251\363"
	.ascii	"\376\003\217\000<\375\372V\373SN?\252\226\352\"7\230"
	.ascii	"\021\244\255g\3133\035\3269\344/\214;e\375\347^)\347"
	.ascii	"\177\364^\270<X\"\245\002<0S\312\"\2767ov\375JM\004"
	.ascii	"Z\222\215q\223k\204\033\263a \220E\204\266\334\034\266"
	.ascii	"Lp\351\301\377+BC7\357\027\246\250\233z\204\206\002"
	.ascii	"j=\036\362\031\337\001C\367\036\217\245\211\370\346"
	.ascii	"\222\257\255F|/\274\222q\023\346\2211\015\\\332;\262"
	.ascii	"'M\322WF\222\014\257\322m\340\332j\011\364J\340\336"
	.ascii	"\023i\201\226G\001}h\032_\364?G'.z\363TO\035\356\317"
	.ascii	"\304Z\362'_TfqQ\335\177\305\237)\307\013\244EC_\014"
	.ascii	"\233S,\232z\030\314J\263\037\317BL\330\217\006|\337"
	.ascii	"\222\260\006 0y\011\026\261\204\3276d\\B!9i6\234\372"
	.ascii	"\325c[\002\257\200W\3732\234\"Eh\255\254\275v\360\332"
	.ascii	"k\256\260\367\340\206G\326\006\227\310\\1\0228}m\204"
	.ascii	"\012\235\205\353\306\006\031*-\226>\273r\"\355&\267"
	.ascii	"&|\206\026^]\355M)\"\231\262\260$\331B\243:\234\207"
	.ascii	"\245B\317\310\365\201\2404\260P\251\257\211\210*)Nk"
	.ascii	"\305\225\361\264\222JY\306<(5\213\250\230\261\370\364"
	.ascii	"\330vn\177)\206\202\373\340\275\015?\314T\037\225\221"
	.ascii	"\3756#fw\357[\247\273\021\222\016\226\301[\310\344\007"
	.ascii	"\337\203\307\222\004\232H\202\321\214I\020\234\234\262"
	.ascii	"V\361J\031K\224\330EY\277\222\016+L1\300\226\030o\370"
	.ascii	"\344z0\033M1,\3630\310_\014\270\323\245\220=\221B(u"
	.ascii	"o@]\201%\031\256\266\177\307\244T\351T\2566sbqkz\336"
	.ascii	"T\025Y\031L\006\232D\371"
	.ascii	"U2!\\\277\316Z\271E\254\267L\\Q\337\214\232&k\232z\334"
	.ascii	"M\"\356\017\022[+M\334\313'\307\335&\266\376x\346\243"
	.ascii	"*D69\2142kTU\263\301L\025E\261\224*\237\212\333-bB^"
	.ascii	"Q\250j?\010Z\222\215\251 \257\333\2711k\207U\341\022"
	.ascii	"J>\016\034\223\216\003U\233\204\322,\255\222\2343\031"
	.ascii	"\025\255J\225\212i\274\317+\001\306_\340\224\210\327"
	.ascii	"\312\213\212\245^\346\211Y\253\310-~\216\014\337{\363"
	.ascii	"\274z\002UM\343\357\022\325\000Cf\356C:\215-W-\316\236"
	.ascii	"\035'\037G)#/\240\365/\0072\344`5\351\242<|[w\253\227"
	.ascii	"ZM\246-\374\013)U;\355-\234xT\325\301d1\314\2144/\250"
	.ascii	")\034\341r\017\327\311U\325L\336Yv\343\234\332\275["
	.ascii	"]Y32=GU\362\325O\3759\325\220\372\034\255\177\344s\364"
	.ascii	"\226[\302\032\0019\3519:\023F'>G\277T\274'\200=\351"
	.ascii	"9\332\004\213\002\206pf\3614\317C\371\032m\022\217\252"
	.ascii	"=\267\036\303y(\326;to\317\227)\332Hv\332\254J\033\377"
	.ascii	"\340u\363\2607\313\272\031\367\301\276\2273\235\305"
	.ascii	"\265\244\377,\341)#\376\3624\261(kN\014\0305\320,qT"
	.ascii	"\337=\317\244\377\233S\312\233YP\336\230)\020'\022\027"
	.ascii	"\0227\022\017\022\037\222\002$~ \363J\221\224a7\210"
	.ascii	"$\204\244\022I\025\222j$5\364\022\221\223\230\223\012"
	.ascii	"?\347\321;#\362\236p%\215\273\257~%\306)\361H\327\371"
	.ascii	"\222\004\012\366\336\337.\005\374Xz\226JN\331\253\017"
	.ascii	"\007%'\270w|\273T\037Rh\374\207\201\020\250\272\372"
	.ascii	"\233;R\240:I}\315\325\315o0\374\033u\035Yw\202h\213"
	.ascii	"\351\014\322+\336Tc\033\325\0310K\375\3513q \327\223"
	.ascii	"\2771\3764z\177\324\232\022\342\272\010\377\313\025"
	.ascii	"&\351\2548\350\024\230\006T\3761\351\0329\263\323\""
	.ascii	"1\306o\021$S\257\025\367]YSsG{\244\2715\034ok^\266\""
	.ascii	"\036[\336\331\274,\034_\321\021^\026m\212\020w{\364"
	.ascii	"\331\366\225\221hG\307\302\316pg\324\2614\032}6\332"
	.ascii	"\276`eK\324+\245\026\3762\336\031Y\376T\307O\333\314"
	.ascii	"\341\366\326h\213\247=\032\211\306\237\217\267\305~"
	.ascii	"\366\302\217\303\235\341\034\030\205\316OV\204c\035"
	.ascii	"M\363'\364\276\233+\225\374he\333\262x\254\351;\371"
	.ascii	"-\321p\313\322p[\313\334\226E\313\333Wvv\256\2106\315"
	.ascii	"s\264\277 \370s\375\355\021\234\374\311Hg\374\371pg"
	.ascii	"|e\333\202p\3073Ms&h\235\375?7\031\333s"
	.text
	.section	.gnu.lto_useFailsafeConfig.f5fa6bc6f00f3566,"",%progbits
	.ascii	"x\234cb`b@\007\222@\274\035\210\345\201\230\221\231"
	.ascii	"\201\221i\3029\006\206F\016&FF\020\203\201\221\241\236"
	.ascii	"\211\261>\222\021\254v=\323\201\007\377\377\257\233"
	.ascii	"wl\301,FFV&\306\\\2600+CKC\303\004\005\006\206d07\004"
	.ascii	"H\202\264\20622\201h\346\263\014M\247g<{\300\224\310"
	.ascii	"\270\220\221\225a6\303\254\306\206\006\201LF\206j\206"
	.ascii	"_\015\035 \026\320\030\220\306\010\306LF\2105\351@\235"
	.ascii	"\014\347\031\232\037\314<\314\005\321\305\200P\315\224"
	.ascii	"\014U\225\011t-\303E\206\306\007\263\224a\212  \004"
	.ascii	"\250\000h1\310\253\262z\372\305E\311\372\271\211\231"
	.ascii	"y\372i9\231\351\031%\372i\211\2319\305\211i\251z\311"
	.ascii	"\014\000\207Y:\\"
	.text
	.section	.gnu.lto_failsafeInit.f5fa6bc6f00f3566,"",%progbits
	.ascii	"x\234\215\220\257O\0031\024\307\277\337\366nCb\021\004"
	.ascii	"<\311\356\237\331\022\220\307\205\033%;\004\303M\254"
	.ascii	"G\020\310I\002\006\202#\374\260\013j\012C \340&\347"
	.ascii	"HNMcF_\357vb\030^\322\366\265}\237O\233\247\240\260"
	.ascii	"\032\033n\034\021\330r+5\250F\037@\276\246HI@\014\025"
	.ascii	"\207{\364\265\317j2[,\236^^o\036IW\222\021\201\233\344"
	.ascii	"2\304\271\265\243m \361\245m7\013\337\241\222U\277\343"
	.ascii	"\354m\372=g\314[\206\270\306Un\355\272!\006\370\261"
	.ascii	"\027\2229\215\374m\227\206\345[]\331\013vYL\364\012"
	.ascii	"\246jLg\356\317%\246+,\360\330x\\|V\330\016\356\255"
	.ascii	"\213\216aP\033\302\332\320\310\204\360\206\2067\354"
	.ascii	"\227\357\373\023\271\361\266i1\377ck\376\317\306\332"
	.ascii	"\326\224\344\013\371\354\341\256j\3042\332\256\312\265"
	.ascii	"I:\260\331\212\372'I\224\305\3468J{\246{x\032\245\261"
	.ascii	"\351\365\343\364\240\225\340\027@'e\024"
	.text
	.section	.gnu.lto_failsafePhase.f5fa6bc6f00f3566,"",%progbits
	.ascii	"x\234cb`b@\007\222@\274\030\210\345\201\230\221\231"
	.ascii	"\201\221i\3029\006\206F\016&FF\020\203\201\221\241\236"
	.ascii	"\211\261>\222\021\254v=\323\201\007\377\377\257\373"
	.ascii	"pl\301.FFf&\206L\2600+CKC\303\004\005\006\206d07\004"
	.ascii	"H\202\264\20622\201h\346\263\014M\267v\274\323Hd\\\310"
	.ascii	"\310\312\220\316\310\244\315\260\252\001\010\212\201"
	.ascii	"\232g3\314jlh\020\310dd\254f\370\325\320\001b1\345\202"
	.ascii	"\015\211`\0042\301v&1\302\\z\221\241\361\000+\334\030"
	.ascii	"\210X\010##\310\022\020OVO\277\270(Y?713O?-'3=\243D"
	.ascii	"?-13\24781-U/\231\001\000'E4\355"
	.text
	.section	.gnu.lto_failsafeIsMonitoring.f5fa6bc6f00f3566,"",%progbits
	.ascii	"x\234cb`b@\007\222@\274\030\210\345\201\230\221\231"
	.ascii	"\201\221i\3029\006\206F\016&FF\020\203\201\221\241\236"
	.ascii	"\211\261>\222\021\254v=\323\201\007\377\377\257\373"
	.ascii	"ul\301~FFf&\206L\2600+CKC\303\004\005\006\206d07\004"
	.ascii	"H\202\264\20622\201h\346\263\014M\267n\274\327Hd\\\310"
	.ascii	"\310\312\220\316\310\244\315\260\252\001\010\212\201"
	.ascii	"\232g3\314jlh\020\310dd\254f\370\325\320\001b1\345\202"
	.ascii	"\015\211`\0042\301v&1\302\\z\221\241\361\000+\334\030"
	.ascii	"\210X\010##\310\022\020OVO\277\270(Y?713O?-'3=\243D"
	.ascii	"?-13\24781-U/\231\001\000B\2035\035"
	.text
	.section	.gnu.lto_failsafeIsActive.f5fa6bc6f00f3566,"",%progbits
	.ascii	"x\234cb`b@\007\222@\274\030\210\345\201\230\221\231"
	.ascii	"\201\221i\3029\006\206F\016&FF\020\203\201\221\241\236"
	.ascii	"\211\261>\222\021\254v=\323\201\007\377\377\257\233"
	.ascii	"r|\301\031FFf&\206L\2600+CKC\303\004\005\006\206d07"
	.ascii	"\004H\202\264\20622\201h\346\263\014M\267~|\322Hd\\"
	.ascii	"\310\310\312\220\316\310\244\315\260\252\001\010\212"
	.ascii	"\201\232g3\314jlh\020\310dd\254f\370\325\320\001b1\345"
	.ascii	"\202\015\211`\0042\301v&1\302\\z\221\241\361\000+\334"
	.ascii	"\030\210X\010##\310\022\020OVO\277\270(Y?713O?-'3=\243"
	.ascii	"D?-13\24781-U/\231\001\000\026>4\350"
	.text
	.section	.gnu.lto_failsafeStartMonitoring.f5fa6bc6f00f3566,"",%progbits
	.ascii	"x\234cb`b@\007\222@\274\030\210\345\201\230\221\231"
	.ascii	"\201\221i\3029\006\206F\016&FF\020\203\201\221\241\236"
	.ascii	"\211\261>\222\021\254v=\323\201\007\377\377\257\233"
	.ascii	"w|\301MF\240Z\006\006V\206\226\206\206\011\012\014\014"
	.ascii	"\311`\005!@\022\244+\224\221\011D3\237eh\3321\343\333"
	.ascii	"\007\346D\306\205\214\254\014\332\014\253\032\200 4"
	.ascii	"\223\221a6\303\254\306\206\006\201LF\306j\206_\015\035"
	.ascii	" \026S.\330\210\010F \023lY\022\304N\260\010\003\210"
	.ascii	"}\221\241\361\301Me\210Y0\020\302\310\010\262\011\244"
	.ascii	"CVO\277\270(Y?713O?-'3=\243D?-13\24781-U/\231\001\000"
	.ascii	"\255F5\311"
	.text
	.section	.gnu.lto_failsafeIsReceivingRxData.f5fa6bc6f00f3566,"",%progbits
	.ascii	"x\234cb`b@\007\222@\274\027\210\345\201\230\221\231"
	.ascii	"\201\221i\3029\006\206F\016&FF\020\203\201\221\241\236"
	.ascii	"\211\261>\222\021\254v=\323\201\007\377\377\257\233"
	.ascii	"vjA/#\023\013\023C&#\0033\220\000I\2622\26444LP``H\006"
	.ascii	"+\015\001\222 \375\241\214L \232\371,C\323\255\031\213"
	.ascii	"/2'2.ddeHgd\322f\320\312dd\232\3150\253\261\241A \223"
	.ascii	"\221\271\232\341WC\007\210\305\222\0136 \202\021\310"
	.ascii	"\004[\232\304\010s\352Y\206\346\363\315b0#\230\201\246"
	.ascii	"\200T1\201\344/20\302\305!\212C\200\316\002\332\014"
	.ascii	"\362\260\254\236~qQ\262~nbf\236~ZNfzF\211~ZbfNqbZ\252"
	.ascii	"^2\003\000\233l6b"
	.text
	.section	.gnu.lto_failsafeOnRxSuspend.f5fa6bc6f00f3566,"",%progbits
	.ascii	"x\234\235P\241N\003A\020}o\266\233Vb\021\004\014\012"
	.ascii	"\322\373\016|I@\036\027\356\330\244\207\240u\210\356"
	.ascii	"\365\0205$\325\207\001\203@\000\022\211\205\244$XT\025"
	.ascii	"\341\013\020\230\262s\2273H&\331\231\2673o\336\314\256"
	.ascii	"@\360\327\326\303\331%\260\031\"\015(\3637\240\350\011"
	.ascii	"\251\000\304D89d\315}\220\347\345ju\377\370z]Q\272\002"
	.ascii	"G\030\346DG\221U\027\314\342\302\373\371\026\220\324"
	.ascii	"\327A\360\252\264O\321h\026\230~<\335\276\330\2307\264"
	.ascii	"\310(;\270\363\336\2579\362\012UQ#9\307\217\237)29U"
	.ascii	"\345\200\001\326+\034\261]|\201\362\262\3746\255N'\243"
	.ascii	"Q\032\276\272MqV~J[\264aN\240h~\272\327$\37776H\001"
	.ascii	"\357(\226\325v#\323\332 4\204\347\351\377n\364\243\321"
	.ascii	"Y\022\345\261;\215\322\241\313N\306Q\032\273\341(N\217"
	.ascii	"\373\011~\001\246\362O\373"
	.text
	.section	.gnu.lto_failsafeOnRxResume.f5fa6bc6f00f3566,"",%progbits
	.ascii	"x\234cb`b@\007\222@,\316\310\300 \017\244\031\231\031"
	.ascii	"\030\231&\234c`h\344`bd\0041\030\030\031\352\231\030"
	.ascii	"\353#\031\301j\3273\035x\360\377\377\272]\247\026\254"
	.ascii	"`dbcf\310\004\013\2632\26444LP``H\006sC\200$Hk(#\023"
	.ascii	"\210f>\317\320\374`\336R\251D\306\205\214\254\014\351"
	.ascii	"\214\314\325\014\277\032:\032\0042\031\031\223\031!"
	.ascii	"\306f\002U2\234eh:\271A\014\242J\233aU\003\020\204f"
	.ascii	"22\317f\230\325\330\000R\315\002\327\307\232\013\326"
	.ascii	"\026\301\010d\202\365'A\214\001\031\0166g\307\217\345"
	.ascii	"?\231\321Mb#\316$\210Q \0216\020\363\"C\343\203\025"
	.ascii	"\252\020\263` \004\250\010\3501PP\312\352\351\027\027"
	.ascii	"%\353\347&f\346\351\247\345d\246g\224\350\247%f\346"
	.ascii	"\024'\246\245\352%3\000\000\216\261O\034"
	.text
	.section	.gnu.lto_failsafeOnValidDataReceived.f5fa6bc6f00f3566,"",%progbits
	.ascii	"x\234\215\221?O\3030\020\305\337\331n\012\210\201\211"
	.ascii	"\001\211?\013\013\225\032\301gi%\030\030BD\212\245\226"
	.ascii	"\201\2621\324\241\014\260u\206\005\006\026\212\0001"
	.ascii	"e```(H\200\220*\004L\231\220\370\012]\3129!E0\365I>"
	.ascii	"\333\227{?\237\035\001\201\377Z\342qM\300,\317\224\003"
	.ascii	"\211\326\023\020\216\010!\273.\314\230\272\231\201\031"
	.ascii	"\227\244\322\264\"\262\013\020\032B*j\254P\002\271\024"
	.ascii	"\267q\277\177\361\372p\034\221\030U\320\004\307\206"
	.ascii	"\274\015\254\034\366\214i\315\001~\262-q\264\2302\011"
	.ascii	";\313g4\343\363\323)\217N\270\203\012\251\035\364\314"
	.ascii	"\276\231\320D>\245\007h\256\304#v\357\257&\323\252\002"
	.ascii	"\316\014\253\254I\036\34104\266\372\327\227\253%\266"
	.ascii	"e\342e\342_K1\026\236p>\242\366W>;\317)`ah\316\017\210"
	.ascii	"!\315\203fOd\214<\223\231\004tp\367\031.\016\322\326"
	.ascii	"\212Nf\262*\223D\327\225\334D\364\326~W\177\256\263"
	.ascii	"\252\311\031\256\215\364G\332\214C\003\260J^\363\005"
	.ascii	"a\034\315\247\334L%\356\233\277Y\327t\321\255o\371n"
	.ascii	"\315\323\233nP\325\225\215m7\360t\265\356\005\353E\037"
	.ascii	"\337\364\365s\262"
	.text
	.section	.gnu.lto_failsafeOnValidDataFailed.f5fa6bc6f00f3566,"",%progbits
	.ascii	"x\234\225\221-O\003A\020\206\337\331\335^/\015\202\004"
	.ascii	"\201\342\303`h\322\013\374\2266\001\2018.\264l\322\""
	.ascii	"Z\034\242{\024\001\256\032\014X\004\265\025\025\025"
	.ascii	"\210B\302WRAQ5\240\011\011\010L\231\275\343R@\225Iv"
	.ascii	"fvv\346\231\335\035\001\201\277\262\312\353\235\200"
	.ascii	"\005\266\224\002\211\346-\020\272B\310\276\007\223Q"
	.ascii	"\235y\230)I*\016+\"\353\200P\027RQ}\235\"HKt\207\243"
	.ascii	"\321\305\307\365i\217DFA\023\034\253\322V\271V\261\244"
	.ascii	"p`Ls\021\010\242m\236\265e\025HX+\357\320\030v\236g"
	.ascii	"}:\343k\224H\355\341\323\034\232iM\024P\334Es&n\260"
	.ascii	"\177\365:\023geqnX\012\232\344\011\216Cc\263\307u\251"
	.ascii	"JT\266F\354F\365\2331\306\302#\316S\2735H'\375\234,"
	.ascii	"\226'\346|\203\030\3228j\274\211\204\221f2\223b\370"
	.ascii	"}5\011\273\377A'\023\352\341\362%\\\371Av\3073+\220"
	.ascii	"D\337\223\334\245\375\330\032\250_\237\261\241\311\231"
	.ascii	"\254\223D\022q\306`\025\315\342\001\341\260\267\024"
	.ascii	"s\023\311\363\253\371\314\336o.\347\325\252\201W\361"
	.ascii	"\365\216W,\353\322\366\256W\364u\271\346\027\267r\001"
	.ascii	"\276\000Di\201\367"
	.text
	.section	.gnu.lto_failsafeUpdateState.f5fa6bc6f00f3566,"",%progbits
	.ascii	"x\234cb`b@\007\206@l\006\024N\002\322\214\254\014\214"
	.ascii	"L\023\316104r01\261\354\221ch\340a\276\242\317\320\300"
	.ascii	"\305\314\310\002\022fdad\004\321\014\214\014\365L\314"
	.ascii	",\214\365\221\214`3\3263\035x\360\377\377\272i\247\027"
	.ascii	"\234`daeb\310\004\013\2632\26444LPPbX\330\3200\351\300"
	.ascii	"\306\323\275\342\015\017\032&4\374\373\377\237\021\250"
	.ascii	"\200\211A\201\221!\231\221!\002\310a\344\000SL\214\250"
	.ascii	"N\203\352\334t\232{CCG\303\377\377\365`m\006Dj\333\202"
	.ascii	"\252\315\214Hm\333\273\247\"\273\223\231\211\301\223"
	.ascii	"H\235\2271|\030BH'\003H\036\010\200\012\031\366q3\204"
	.ascii	"22\001)\346\263\014M\267n\274\327\200\206\037, \033"
	.ascii	"6O\263c`Hd\\\010\214\245dF\260\266tF&m\206U\015\015"
	.ascii	"\015\007\376\036\223\001\3328\233aVcC\203@&#K5\303/"
	.ascii	"\240\337\201,\326\\\260J\220\345\254`\013\223@\374D"
	.ascii	"\306\265\020\356\011\206\2267\007gv\363@\214\005\232"
	.ascii	"\007R\210\342\300PFf\206Fv\346\363\014\315\034\020E"
	.ascii	"\014\014p\303\331\222\031!\011*\223\221\035\246\232"
	.ascii	"\205\341 7\363E\206\306\007g\227\262\3014@@\010\320"
	.ascii	"\321\007\271A\032d\365\364\213\213\222\365s\0233\363"
	.ascii	"\364\323r2\3233J\364\323\0223s\212\023\323R\365\222"
	.ascii	"\031\370\213R\223S3\3132\363\322\203*\\\022K\022Y\023"
	.ascii	"\213rSS\204`*\202\3133K\2223<\213\375\363\270\222RS"
	.ascii	"\013R\213|\363SR\371\212R\013\212\362\223S\213\213\203"
	.ascii	"K\022KR\001\010s\253\221"
	.text
	.section	.gnu.lto_.symbol_nodes.f5fa6bc6f00f3566,"",%progbits
	.ascii	"x\234M\316\313J\0031\024\006\340?\311d&\275\331{;\275"
	.ascii	"\211[\237\302\007\360)\334\371\026\2478\233\356\024"
	.ascii	"\004w\272h7>G\007\241\240\314V\320\205\322\001\273("
	.ascii	"\202(HQ\020'\351\320$\213\374\347\3139\011\341\3408"
	.ascii	"\346\330.\356\021p\221\000D\327\223\023\311\340\221"
	.ascii	"\220`\331\316+\304\234\016\347\2723\022 \360\022q\333"
	.ascii	"\341e\022\216\016\310\333\211\311\266\227\315\313\216"
	.ascii	"\324\273\360\365\253\222d\336\277\2310\356\223\357("
	.ascii	"\240\300\221\"\345\250@\005GE*:\332\243\222\243*\225"
	.ascii	"\035\325\250\342\250N{\216\032Tu\324\244\232\025kQ}"
	.ascii	"\253\361\230\261\220\032\026]jZ\364\250e\321\247\266"
	.ascii	"\305\200:\026C\352\356 \374\020\321\353\037\023A\017"
	.ascii	"\261\311\020\251N\265\217\364ws*\324\000\321\317\342"
	.ascii	"<\020*D\374\225\027\263\317\315\241P#\244\353\217\007"
	.ascii	"\251\017\242\365\342}[\254\314\310\020\351\233)|L\227"
	.ascii	"\246\020\230\277$Y\006X>\353\034 ~\372\016\205\352a"
	.ascii	"f2\300\331\343\212\231\307\257V\322\370\362\3168J\216"
	.ascii	"\204\352#\276\317\256\225\201\251\376]+\377u;\317N\236"
	.ascii	"]\205\371m\302\360\017\227\234\2535"
	.text
	.section	.gnu.lto_.refs.f5fa6bc6f00f3566,"",%progbits
	.ascii	"x\234eM\333\015\2030\014\274s\014%\274\332\322\002\013"
	.ascii	"\260\377\016\335\254\347D\342\003\022Y\326=m0\374P_"
	.ascii	"\017\220v\375\236\340l\2444la\355#\270\360A\373\350"
	.ascii	"\024\317\012\032\034CaK\003n-\310\314\225\225\267\017"
	.ascii	"T]\347\305\221\364\211\316\241\240Y\332S\363\322\274"
	.ascii	"\205\027\230}\302o\337\320\323Z\323\276\225\276H\354"
	.ascii	"\332\177]\302\003\027"
	.text
	.section	.gnu.lto_.decls.f5fa6bc6f00f3566,"",%progbits
	.ascii	"x\234\245Z\013t\024U\232\256[\035Hw\036\235\007\017"
	.ascii	"aX\227\314\256\343q\335\201\3408g\216g\335qh\222\006"
	.ascii	"\262\033\222\234<P\366\270\247-\272\013\322K\247;\323"
	.ascii	"\335\201p\316\356Z\011\317\001\207\367S\006\011*\302"
	.ascii	"\214\307\307\3422\250\0104n h\234\030\303CD\036\215"
	.ascii	"\"\234uG^\"\020\004\263\377\275u\253\352VuU?\230>\371"
	.ascii	"+\267\376\276\377w\377\373\337\377\377\357_\267\232"
	.ascii	"\347x\356\241l\216\033\200\317\331R\216\373\312\301"
	.ascii	"q\305\034\307=\001\204\200\266r\362g\004\320^\240\003"
	.ascii	"@\235@\335@=@}@7\200\036\207\3165@u@S\201\246\001=\015"
	.ascii	"\344\007\012\000\205\200\302@-@\255@\377\016\264\004"
	.ascii	"\3509\240e@+\200@\015n\017\374\337\013\364g\240K@W\201"
	.ascii	"\276\005\372\016q\272\017\326\305\011t\214\376\317\243"
	.ascii	"\372fq2\316M\2709\015\377\217\003y\240\275\017\350\026"
	.ascii	"\320/\201\316\001\345\000\377\024P/\264\373\200\216"
	.ascii	"\002\035\007:\001t\022\350\024\320\031\2408\222q\361"
	.ascii	"x<\243\037\373\3016)\000\352gt9Fu\261Q\271~\220\271"
	.ascii	"\010\377o\003\035\204\366e\240\333H\326\3638\355\343"
	.ascii	"\204\366\005:\217\003TV\261\303\036\303\230\235t\236"
	.ascii	"\230\016\001}\017\337\317F\372\271b\021<\037\236\366"
	.ascii	"oQ\346b\300\302k9\334`\313l\306\236X\376\016\222\307"
	.ascii	"a\355x\027\311\3761\027i\343\033\355\216\347:\010\373"
	.ascii	"\012\265\347y\252S'\222\347\207\307n\245~\301S\335\214"
	.ascii	"s\305~\366wt\236\212~\253\351\\\216Q;\365S\235\317\003"
	.ascii	"s<P\033\222u?\307\330\003\353\365\003\265\321\000\235"
	.ascii	"\303\023\314\332`\005\020\320\177\300\375\177\032\346"
	.ascii	"D\326\010\276\333\307\351\347m\003\336Al'\370\277\022"
	.ascii	"\356\355\234\3543x\256W8\331\247.q\262?a\277\302v\310"
	.ascii	"\243s\232F\343\000\317]\261\003\216\011%\306\330\330"
	.ascii	"\310\347\344X\330K\343a\020\2147\030(\033\310\016\344"
	.ascii	"\000\312\001\312\345e\237\371\316\304\216}t=\261\315"
	.ascii	"\360\234\224\371\320\251\223\357\025?\377\226K\224\307"
	.ascii	"qn\247\266fmv\220\261\361!*\217\327\367#\272FX\016\373"
	.ascii	"\300/\340\3461\244\351g\364\303\307\251O\374\322\340"
	.ascii	"\303g\350\377\307-\374\267\206\312\261\376\211\273("
	.ascii	"\343\327X\310\325Y\310\365\320\377u\026rSS\2147\325"
	.ascii	"Bn\032\215\205\363\324N\254o\342\256J\256\231f!\377"
	.ascii	"4\322\362\2331\316\373\350\377\247i\034\3150\261/\316"
	.ascii	"\305J\3160\313\027\347\250,\306\212\323\266\037Y\347"
	.ascii	"\215@\032x6N\313\257\012f \011f(\015Ll\003\214\207q"
	.ascii	"{\031\334P\022\\\274\367\330\271\304\034\242\340\346"
	.ascii	"\001\300\307\234\266\2166*\203}\247\2073\307\314\346"
	.ascii	"\026JR\273$-l\177h\007`>\205\004\344tp\205\244\221\347"
	.ascii	" *\375\204{Y\222V\304\267}\212J\004\264\025e\003\363"
	.ascii	"A\304=\314\375^\0026\010\3775\227\370I\003\226\343\004"
	.ascii	"\264\015\320\004\3642zX\036D\212\255\236[\"s9\3127\371"
	.ascii	"\330\2608\317\375\012\021\264,\007\314\213\262\376I"
	.ascii	"e\361L\307'Un\026\303}F\345\332\031\356\277\251\334"
	.ascii	"B\206\333\252rK\030\356B\244\262\3073\3545\032[B\014"
	.ascii	"\377E\206\317\252\367&\303g\025\334\303\360\355t\352"
	.ascii	"\370\336\346\320\032\003\0036\235iX\213\012\350\025"
	.ascii	"\364\023\270nG6s\271\321\334\013R\354J\374\255e\273"
	.ascii	"\357\337(\305\332\245\201\201ga\013]+\341\017\254\036"
	.ascii	"\012\013\350\211a\226K\267\017\015W\227H@\015T\017\236"
	.ascii	"\273\010j\353\227\356An\033\301\334!\331\010\"\356\277"
	.ascii	"\027\215\326\353\275\037\361,C\326-v\275+\257W\212\017"
	.ascii	"\014\214\226\307\343!\345\246\203~\300\210\376\276)"
	.ascii	"\372\356E\313GJ\035m\261\201\201_\351'n\347\026a\357"
	.ascii	"\215/\220\332\320\257U\357\265+&\300\253*\373+\270?"
	.ascii	"/\240C\310\016\252-\347\015\241\245\015\217;(\313'\267"
	.ascii	"\225\026\262\216\215\203h8mi\306]\313\233N\277]z\235"
	.ascii	"L_\306\026P'\314\337Li\212\367\201\2515>\351Z\246ZC"
	.ascii	"1\367\273\346\343\031\314\335m4\367G&\003\304ck\227"
	.ascii	"v\267!i\211t\007{_\372\216\366\261\205\243u\233\353"
	.ascii	"\266B\257[\217Q\267\336D\335:\342\261\337\035\242\216"
	.ascii	"\226\276^G\350\372\330dN.\267\004/D\307Bi\362ag1\267"
	.ascii	"\022\203t\214g\222\337x\005\000\257\021\315\251\233"
	.ascii	"\327\277b\223$\273\200\216\243b\200\231o\323O)%\014"
	.ascii	"x\004\021\371\014\304uy\364n\007N\326\230\235$\221\376"
	.ascii	"\230\353\000\225c\003\327\337F\322B@\\L\234~\2334b\203"
	.ascii	"3\211\323\203\326\233^\373{\242\365i\204\315q\311\240"
	.ascii	"u\372@\247\267\274PJ\200\342\004\250'K\017$ \344\320"
	.ascii	"/\036\334+\0350\032rh\215\001}\364\245\354\313s'\262"
	.ascii	"\024\323\231\251H\233\362\207v\320\331\015\026\357\345"
	.ascii	"\373\327K\2616\233b\210\213\031\003\332u\013\261\272"
	.ascii	"?\006\361\241,\004\270`\252-y\363\246\335?%\366\273"
	.ascii	"H\306\277\235e\272\020i\000\235\336\262\375\037\011"
	.ascii	"\320\327\004h\336 \343B\330\014\013a\323\0337\371\236"
	.ascii	"\224\2523\317-\033d\260\234NI3\313\025\032\226b\233"
	.ascii	"~):\214\200)\227\242D\267\024\353\345\245P,\273+c\375"
	.ascii	"\306q\226\0376\\\005\3649\331\244O\241\037\303\365<"
	.ascii	"\271^ \327K\344z\005\256\352G\325\224\016\230E\341\216"
	.ascii	"\241\\\015\273A\263>\317}bX\310\007\270\227$i\025l\371"
	.ascii	"][\321\332y\322dY\226\347\276$\375\372\264mC7\206:\002"
	.ascii	"M\376\277\225\026\024\"5\303\366\0313\3545\323\014\373"
	.ascii	"v\346\031\366f\352\014[\3028v<K\001\250\344T\317>{\371"
	.ascii	"\312\350y0\222\200n\223\024\273t\260i\212\265\306\341"
	.ascii	"\271uD\344\2561\305\356]4T\312\222\371\251r\254\024"
	.ascii	"\333\337\265\014I\361\030*\342V\310\031}\203SvU\263"
	.ascii	"\254\216\341\332\370\"\322\"1,\321I\223\036V^\320\316"
	.ascii	";T/\311sh\215l\325\033\266\252\0231\0335e\302\213\365"
	.ascii	"v\345\276\371\214\022a\333\215`f\021f\267\006\353c\301"
	.ascii	"\336\311\030L\2379\217\262`\335\031\203\351\222I\354"
	.ascii	"8\013v\"c\260\021:\260\023,\330\227\031\203\225\350"
	.ascii	"\300>_\264|\204\324q\000)i\351[#\236YZ\322\341\215\323"
	.ascii	"\341\235Z\224\327\373\214\002\326\237\016X\241\365\202"
	.ascii	"\236a\301\332\2633\005\323\257\3015\026li\306`z\263"
	.ascii	"]g\301\326g\014\306\332L\212\335\\\264\235\215\344\222"
	.ascii	"\015Z\261\267!\351&\033\333\322\205k\262\347y\234\206"
	.ascii	"^\312\266\250\364\2540x\256\223\210l\346\015ih\243\234"
	.ascii	"\2060?u\251\267\251k\331}Xy\305!\277R1\357\251\004\212"
	.ascii	"\375\216\365\356\2573\006\263\033\325\324>\354L\005"
	.ascii	"\264\205\307\233d\007\217\267\304\027\371\304-\261\203"
	.ascii	"W\360\037\240\322\0333\316\237/[\344\317\":\024\317"
	.ascii	"]6\272\216~X\332\034ae.)\366}\3276\204\343W\361\235"
	.ascii	"\035\246\017\012:\315\250\357\274C|g\007\361\235\345"
	.ascii	"\366\324O\011:\014\236{\215\210\274j\364\235\267d\337"
	.ascii	"y5-\337\331eH>\335*f\2725\221\036\357\217lT~\2341Xa"
	.ascii	"2\337y\225\361\235\327\210\357\274N|\347M\023\337\221"
	.ascii	"\220>\352\005\264=c\337\331i\341;J-\306sG\354\006\337"
	.ascii	"\321\017K\233\217\261\212\225$\233\341]\246\204\034"
	.ascii	" %\244Df8\237\\\027\222\353br]B\256\317\221\3532r]A"
	.ascii	"\256\253\310u\015\271\256#\327"
	.ascii	"\015\344\372\212\211\215\022&\334\257\225\234\264:\223"
	.ascii	"W\222K(A\317\031\274U-A{\256\242\325\244\004\355'%\350"
	.ascii	"%\322\357\206e\011JF\224\205\245\253\302C\212\343\334"
	.ascii	"5\212\351\034GU\312\264r\275a\254\\w\361f\225\353\331"
	.ascii	"Ck\224\203\021\273\256x\245\207\234\361\005\355)\237"
	.ascii	"\230?}]~\316\337\313\343\343\323\225\016\275M\322\000"
	.ascii	"\302\352\305x\303i\351f|Z\212\271\251OK\267:\324\323"
	.ascii	"D\225\367\206\2039B\325\330\0378L\217QOjl\033\303\376"
	.ascii	"\332az\274\2720Ge\017b|)\351\023\2736?\001\035 Q\373"
	.ascii	">o3\025\263zbx\217\037\316B\302\264s\314\017\314\342"
	.ascii	"o\365|\272\022]{\277}\204\274&Xx\017\237\364\324\254"
	.ascii	"'\3219\342Wb\375\207\272\351\231\326\274\305\022\036"
	.ascii	"\353 98{\303b\\\303A]o\362!?1\365\307U\364Pt\013\361"
	.ascii	"(y\274\316\364\306;\222|\274\243\246\343m^\324\255\036"
	.ascii	"\333)\007\203\307\314\3073\034\014\036\347\015\001\366"
	.ascii	"\251\251\015\327~hj\303o\322\233\323g\311\347t\322t"
	.ascii	"N[\226t\337\303Q\344i^\367@J\317W\344\375!\331\366\035"
	.ascii	"\337\274\351\340\001\324N\036C\317\362\030oQ\256\351"
	.ascii	"QM\032P\247\267\274\3678Y\370/\010\320\012\003\220\200"
	.ascii	"\262\015G5\331\372\323\227l\207\326\300?\230(\3402\355"
	.ascii	"nH\360\233r\315\023|O\327N\264\206$xy\312o\220~\247"
	.ascii	"x\253\004\177\226\267\316\324\247\214\216\364\225\351"
	.ascii	"\252\276\375\241\341u\301\376\334t\334\364\177\215\350"
	.ascii	"_\233\242\0375\242\367\245\205\376g#\3727\246\350\327"
	.ascii	"\215\350\227\322B\277lD\277b\212\276\246\233\346\214"
	.ascii	"\361\012\374\342\274t\340\257\031\341\2775\211\340\025"
	.ascii	"\361\376/>x\011\255\234\327\261C\272\202]\304\020Qx"
	.ascii	"e\255B\352\006\237\370\226\343\235\004\325\344\0367"
	.ascii	"M\307>\377\305a\264\330<\224/\"\353\201\373\365\261"
	.ascii	",\277\3314\270v\314B\221\357M\0259r\241\377\341?\354"
	.ascii	"\224\346/\220~\030x\026\335[\245\020\333s\010\027\372"
	.ascii	"?\2202\341R\336=\225\011m6C\231\260ka\001.\3631?u\241"
	.ascii	"0\220\227X(<\227\257/\024\27046sM\013\001\265\333\360"
	.ascii	"f>\317\226\331f~\327\270B\270\004LQm>\237o\276b\277"
	.ascii	"\261\231\255\330\202/{\321F\351}\371\325\247\354\022"
	.ascii	"<\267\323\002b\251\031Dl\367\302n\325\373\224\320\352"
	.ascii	"\264@\370\255\251\022G.|\360\304z5t\224\315\357O\026"
	.ascii	"\030\313M16^\376DT'\222\376~\266\322\246\263p\372^\372"
	.ascii	"_\371\274\200V\333\260\223\336\311\277'']gt\322\317"
	.ascii	"ZKdnj\027\375\2153\321E78Mk\3317\234\246\265\354!\247"
	.ascii	"i-{\314iZ\313^p\352kY\312\276\256\261\0073\354%\005"
	.ascii	"*;\233a\277P`\372\203\203\3274\266\203a\357\327\330"
	.ascii	"9\014\373O\032;\227a\177\241\261\363\030v\277\306\316"
	.ascii	"g\330k\013U\266\223ao\327\330\005\014\373]\215\255<"
	.ascii	"r\247\214\375uL\354\257'\261\277\301\"\366\015\341\333"
	.ascii	"Uh\356\365\357\352\275\376o\270\255\222\324\007\317"
	.ascii	"\220\377\375\017\033\245\330|\011\207\037B\312\313\214"
	.ascii	"\036\025\304\352\351\365=\015\216@\365\306\366\236s"
	.ascii	"\300s%\011A\345\215\000S\207\351\317y\324g\272\316G"
	.ascii	"H!\266\317\206OeN\033TO\011\003\005.\0219`3\234\312"
	.ascii	"|\266\025o\001\230\235\372\275\302\347\337i\257\014"
	.ascii	"\2454\336\364ul\376|\030\336\013\016\332\310\303s\241"
	.ascii	"I\025\232\016L\374\324\331\0071\314a\002\263\240\310"
	.ascii	"X\203\362\206\032\224\327\027\225p+\301&I>\350Y\312"
	.ascii	"\031Hp\243\264\245xny\221b\312{:\214\212o^\277{\024"
	.ascii	"}\201(\377\232c\235\0210\345a\246\376\000\373\314\277"
	.ascii	"n\030\247`m\315\030K\377\016\341j\377a$\255\312S\012"
	.ascii	"\351\035F8\235\177\233\301\225\350\340\256\211\207\307"
	.ascii	")X\357\245\203\225\344-\316u\006\253/c,\275^7\030\254"
	.ascii	"\013\351`%y\031q\213\301\272\2251\226^\257\333\014\326"
	.ascii	"\252\3424\260,O\200\333cw\030\254\035\031c\351\365\032"
	.ascii	"\330\365\016\376\335\206r\250\324i\2043\363\262\022"
	.ascii	"k\325V\036\332L\336\015\244_\005\034\303U\3009R\005"
	.ascii	"|X|OU\300yc\025\260\037\237h\235O\253\012\210\027'V"
	.ascii	"\001\337\025g^\250\236g6\253\257\310fu\301b\263\202"
	.ascii	"\207\246!\231\3328\351+\016-\365\013\350\177\310\320"
	.ascii	"\2356|\004\373\021\271\366\220k/\271\366\221\353Qr="
	.ascii	"N\256'\310\365$\271\236\"\3273\344\032\2671\307\267"
	.ascii	"<\267f\210a3\354HxU\362\177\206\335\020o\254\273~\252"
	.ascii	"\333X\345#\332\027\215X\011\033\3537z\2508~\377\036"
	.ascii	"\037\271\243\035\036\212\026K\267\006\320\200M{\365"
	.ascii	"!oB\226Z]\266\025\321\226\362b\0064x5\365l\256\350U"
	.ascii	"\350X\025?\337\263TBoJm\2708V\336U\3554\002%\270\346"
	.ascii	"\265\004\234#\027\256\256C\253\346u\034\216I10\313h"
	.ascii	"%\216\367\2454\313\365\004\013\357\\\366\307\021RG\033"
	.ascii	"\331\317\220r\226}\304\010\224\370\264\254\001\351~"
	.ascii	"\015!\227>V\303\337\264\345ZH\355\263H>X\352\226\245"
	.ascii	"T\177\222\261\372-\245\360\202ZI\335\266\224\302\347"
	.ascii	"\003VR\337kRi\374\324\011K\334\261i\357i\356\250\277"
	.ascii	"C\272\243\374\020\3118\317$c\337\265\324\230\371UG\202"
	.ascii	"\324\017\226R\314\031I\202\324\200\245\324\305$cIYV"
	.ascii	"Rw\223\314\253\315R\012?\333ZI\265[J\035L\"5\317R\012"
	.ascii	"?\230ZI\315\327\244J\270-\260\017\255\220\026\360\346"
	.ascii	"\277\367\224\277\217\235\355v.\311J\332\343\3062)'9"
	.ascii	"\306\363\313S\3658\231\262\307\355\224=\336]e\331\303"
	.ascii	"`\241\217\223\330\3659\315B\334\337\216-\215\204\275"
	.ascii	"\245M\202?X\352\015\005g\370g\226\206[\202Q\177\223"
	.ascii	"\350\221o\3076rE3\002\376\231\215\321)!\23781 \314\214"
	.ascii	"x\304\301\223\252\032J\312\270\034W\325\244J\267gJu"
	.ascii	"\271;orum\305\277TW\221\033\373\024\327$\322pLp\325"
	.ascii	"V\223V\376\244\232:\317\344\352)n\366\256\262\\\276"
	.ascii	"\233\354v\225O\254u\323\357\\\015\365\325\365\015U\364"
	.ascii	"\256\306UWW?\271\266\201\334\345\324UW\271j\345/&\272"
	.ascii	"**\353\\\023\345n\3673\323\220\265-\235!\370\003\021"
	.ascii	"a\2068\326\313\345+\355Z1\"FG*w\256\346\346\300\334"
	.ascii	"\262P0\032\016\005*\202\315-\321A\236\011\241P\340\001"
	.ascii	"\345\373\272\306PK\3007Y\230-\226\011-\021\321W)\004"
	.ascii	"}\376\340\314\011s\253Bs\012U\020o\324?[\210\212?R\030"
	.ascii	"\015\315>\270\255\213\302el\263\020\216\216\035\227"
	.ascii	"L\271FNE*#\366\366D\215\214\310\244\322\226H\2704\020"
	.ascii	"\362\012\201\322\231^\357\030!\3344&\030\012\212cDa"
	.ascii	"\272\177\314\317=\217\215\371\331\270G~\376\353GKu_"
	.ascii	"\224\372\203\336@\213O,\215DA\353(\214\224\335\002\377"
	.ascii	"\037\363D\237\374\313\360\232\004o\243?(\226z|\342\014"
	.ascii	"\241%\020\365D\3476\213\021\300wx<t\004\2472\005\350"
	.ascii	"\023\020\346\026\253\267\241\0313d\226\035\367|\344"
	.ascii	"\027\236h\216,\204\233Ej\267hc8\024\215\006\304\241"
	.ascii	"*g\226?\020\360D\346\370\243\336\306Q\011\335<\201\320"
	.ascii	"\034\031\266\010\326i\242\316|C\364\326\254\0175D\304"
	.ascii	"!\314\202\204[\341\017\224\317\011\267*\013\2405#\203"
	.ascii	"\302\336&\241\271(\"\206\375B \334\352"
	.ascii	"i\016\207f\373}b\270(\322,\316\212\206[\232<\021!\352"
	.ascii	"\231\356\017\372\362\302\221\210\337\343m\024\202A1"
	.ascii	"\220Cn\"``\261\2004\233\233\233<\376\340l1\034\035\324"
	.ascii	"\344\367\205\275\366&\260f\243\350\235eo\022ZI#\027"
	.ascii	"\320\201\351\201\011xI[h%\355\222p\253:!\031\\\326\255"
	.ascii	"%,D"
	.ascii	"\375\241\240'\232\252C$\253\011\0027+\022\025\233G\253"
	.ascii	"\226\243z\322\030\247]#\367\303\304\345/j\205\340L\321"
	.ascii	"0P\322o#6P\336\006J\347{\231>\221<e\304\212\240?\352"
	.ascii	"\204u\0063\326R\353\016\361\211\202o:\304\324\243>u"
	.ascii	"%\013\224\3765\215BD\364\210Z\224W\224W\272G\252w\265"
	.ascii	"Oy*\253\353\352<\345\356zwY\275\273\274P\375\246\322"
	.ascii	"UU^Q5\251@\307p\227\217J\020\235R]UQ\017I\253j\322\217"
	.ascii	"\022\276\253u\227UOu\327\272\313\363u\372\250\356X\021"
	.ascii	"\231\022\202\011\205\302\220\016\0125&\311\005\342}"
	.ascii	"j\376\210B\370k\035Gj\035kE\257\350\237\015\274\332"
	.ascii	"\326r!*\220`x\364gj0\340\246\352\267\325\301\332\326"
	.ascii	"\272\026\360\267\240\257\240%B[5\340\220!_1\333\007"
	.ascii	"r[K\2238JcM\025\002~\037\206\227G\023}#M\276\303\256"
	.ascii	"#\372\206\230$\257\277b\202\304\027\006\371p\24442\027"
	.ascii	"\334\250\011\242ep\023\304\243?R(\006\205\351\001\330"
	.ascii	"\025\224\375\201\025\362\207J\303^\354a8\277\342\374"
	.ascii	"P\250\2542\306o\201m$\017\022{u}=l!\225\325O\346\253"
	.ascii	"7\223+&M\276\017b\307\333\022\000=\352uBE>\177D?\244"
	.ascii	"\275iN9\360\302M\303\375\221\206\010\330\264.\352\367"
	.ascii	"\316\212L\014\205]a\360\311\231\367\351U\232.\212\315"
	.ascii	"b\030\264\311\223[\030\302#:'\270\3355\356ZO]E\245\273"
	.ascii	"\252\314=\234\336N\232\006\333W\231\253\262bB\255\013"
	.ascii	"\274La\313nR\257\370\232S\317.\244\267\345\025u\256"
	.ascii	"\332)\360}>e\310w\303tw\036\274\023N\254xj\010\345N"
	.ascii	"p\325{\312j+\352\261E\234\014\017n\213\024\245@\242"
	.ascii	"\256\336U\337P\227\257\015\\\347\256\037\252\033\027"
	.ascii	"|\270\306\355\252WTv\225\225\251\023\251\250\256\032"
	.ascii	"e\316\366\340HP\306\251\205]y\232\007\337\024S\316\224"
	.ascii	"\206\312\372\012\302\251\313\323f\341.\037,\233\322"
	.ascii	"\251O\265\005L\034D!Y\033\356#\3314\355\303\266A[\203"
	.ascii	"\305\331b0\032\311iRcf\260@BjH\270Uq\326\226\260(;\377"
	.ascii	"\260\331\330\207\345\000R<\334\025\035\302pe\337vE\213"
	.ascii	"\024\277\253\014\315\221eG\006\344\255\\\336\341'\210"
	.ascii	"\023\375A\177\244\021\367\035\026\326\207\246\334\177"
	.ascii	"\224)\267&\214\313\211A\31585\014SK\214\326J\177p\226"
	.ascii	"<Eq(\223Y*+\252\376\331S^\375dU\261\221\331P\003\011"
	.ascii	"_\225\312\327\231\311\256\354E\203\303^<r\256@\234\232"
	.ascii	"\324aC\303^\354\275\264\002\201,<E\210\314*\326\262"
	.ascii	"\252\0229\377\017\277#\314j"
	.text
	.section	.gnu.lto_.symtab.f5fa6bc6f00f3566,"",%progbits
	.ascii	"useFailsafeConfig\000\000\000\000\000\000\000\000\000"
	.ascii	"\000\000\000\322\000\000\000failsafeInit\000\000\000"
	.ascii	"\000\000\000\000\000\000\000\000\000\366\000\000\000"
	.ascii	"failsafePhase\000\000\000\000\000\000\000\000\000\000"
	.ascii	"\000\000;\001\000\000failsafeIsMonitoring\000\000\000"
	.ascii	"\000\000\000\000\000\000\000\000\000P\001\000\000fa"
	.ascii	"ilsafeIsActive\000\000\000\000\000\000\000\000\000\000"
	.ascii	"\000\000S\001\000\000failsafeStartMonitoring\000\000"
	.ascii	"\000\000\000\000\000\000\000\000\000\000V\001\000\000"
	.ascii	"failsafeIsReceivingRxData\000\000\000\000\000\000\000"
	.ascii	"\000\000\000\000\000Y\001\000\000failsafeOnRxSuspen"
	.ascii	"d\000\000\000\000\000\000\000\000\000\000\000\000\\"
	.ascii	"\001\000\000failsafeOnRxResume\000\000\000\000\000\000"
	.ascii	"\000\000\000\000\000\000i\001\000\000failsafeOnVali"
	.ascii	"dDataReceived\000\000\000\000\000\000\000\000\000\000"
	.ascii	"\000\000l\001\000\000failsafeOnValidDataFailed\000\000"
	.ascii	"\000\000\000\000\000\000\000\000\000\000o\001\000\000"
	.ascii	"failsafeUpdateState\000\000\000\000\000\000\000\000"
	.ascii	"\000\000\000\000r\001\000\000rcData\000\000\002\000"
	.ascii	"\000\000\000\000\000\000\000\000\356\001\000\000arm"
	.ascii	"ingFlags\000\000\002\000\000\000\000\000\000\000\000"
	.ascii	"\000\361\001\000\000rcModeActivationMask\000\000\002"
	.ascii	"\000\000\000\000\000\000\000\000\000\363\001\000\000"
	.ascii	"millis\000\000\002\000\000\000\000\000\000\000\000\000"
	.ascii	"u\001\000\000enableFlightMode\000\000\002\000\000\000"
	.ascii	"\000\000\000\000\000\000x\001\000\000calculateThrot"
	.ascii	"tleStatus\000\000\002\000\000\000\000\000\000\000\000"
	.ascii	"\000|\001\000\000disableFlightMode\000\000\002\000\000"
	.ascii	"\000\000\000\000\000\000\000\212\001\000\000mwDisar"
	.ascii	"m\000\000\002\000\000\000\000\000\000\000\000\000\214"
	.ascii	"\001\000\000isUsingSticksForArming\000\000\002\000\000"
	.ascii	"\000\000\000\000\000\000\000\216\001\000\000beeper\000"
	.ascii	"\000\002\000\000\000\000\000\000\000\000\000\220\001"
	.ascii	"\000\000"
	.text
	.section	.gnu.lto_.opts,"",%progbits
	.ascii	"'-mthumb' '-mcpu=cortex-m3' '-ggdb3' '-Os' '-flto' "
	.ascii	"'-fuse-linker-plugin' '-ffunction-sections' '-fdata"
	.ascii	"-sections'\000"
	.text
	.cfi_sections	.debug_frame
	.section	.text.failsafeActivate,"ax",%progbits
	.align	1
	.thumb
	.thumb_func
	.type	failsafeActivate, %function
failsafeActivate:
.LFB8:
	.file 1 "./src/main/flight/failsafe.c"
	.loc 1 113 0
	.cfi_startproc
	@ args = 0, pretend = 0, frame = 0
	@ frame_needed = 0, uses_anonymous_args = 0
	push	{r4, lr}
	.cfi_def_cfa_offset 8
	.cfi_offset 4, -8
	.cfi_offset 14, -4
	.loc 1 114 0
	ldr	r4, .L2
	movs	r3, #1
	strb	r3, [r4, #3]
	.loc 1 116 0
	mov	r0, #1024
	.loc 1 115 0
	movs	r3, #2
	strb	r3, [r4, #32]
	.loc 1 116 0
	bl	enableFlightMode
.LVL0:
	.loc 1 117 0
	bl	millis
.LVL1:
	ldr	r3, .L2+4
	movs	r2, #100
	ldr	r3, [r3]
	ldrb	r3, [r3, #1]	@ zero_extendqisi2
	mla	r0, r2, r3, r0
	.loc 1 119 0
	ldrh	r3, [r4]
	.loc 1 117 0
	str	r0, [r4, #20]
	.loc 1 119 0
	adds	r3, r3, #1
	strh	r3, [r4]	@ movhi
	pop	{r4, pc}
.L3:
	.align	2
.L2:
	.word	.LANCHOR0
	.word	.LANCHOR1
	.cfi_endproc
.LFE8:
	.size	failsafeActivate, .-failsafeActivate
	.section	.text.useFailsafeConfig,"ax",%progbits
	.align	1
	.global	useFailsafeConfig
	.thumb
	.thumb_func
	.type	useFailsafeConfig, %function
useFailsafeConfig:
.LFB1:
	.loc 1 71 0
	.cfi_startproc
	@ args = 0, pretend = 0, frame = 0
	@ frame_needed = 0, uses_anonymous_args = 0
	@ link register save eliminated.
.LVL2:
.LBB12:
.LBB13:
	.loc 1 56 0
	ldrb	r2, [r0]	@ zero_extendqisi2
	movs	r1, #100
	muls	r2, r1, r2
.LBE13:
.LBE12:
	.loc 1 72 0
	ldr	r3, .L5
.LBB16:
.LBB14:
	.loc 1 56 0
	adds	r2, r2, #200
.LBE14:
.LBE16:
	.loc 1 72 0
	str	r0, [r3]
.LBB17:
.LBB15:
	.loc 1 56 0
	ldr	r3, .L5+4
	str	r2, [r3, #4]
	.loc 1 57 0
	movs	r2, #0
	str	r2, [r3, #8]
	.loc 1 58 0
	str	r2, [r3, #12]
	.loc 1 59 0
	str	r2, [r3, #16]
	.loc 1 60 0
	str	r2, [r3, #20]
	.loc 1 61 0
	str	r2, [r3, #24]
	.loc 1 62 0
	str	r2, [r3, #28]
	.loc 1 63 0
	strb	r2, [r3, #32]
	.loc 1 64 0
	strb	r2, [r3, #33]
	bx	lr
.L6:
	.align	2
.L5:
	.word	.LANCHOR1
	.word	.LANCHOR0
.LBE15:
.LBE17:
	.cfi_endproc
.LFE1:
	.size	useFailsafeConfig, .-useFailsafeConfig
	.section	.text.failsafeInit,"ax",%progbits
	.align	1
	.global	failsafeInit
	.thumb
	.thumb_func
	.type	failsafeInit, %function
failsafeInit:
.LFB2:
	.loc 1 77 0
	.cfi_startproc
	@ args = 0, pretend = 0, frame = 0
	@ frame_needed = 0, uses_anonymous_args = 0
	@ link register save eliminated.
.LVL3:
	.loc 1 78 0
	ldr	r3, .L8
	.loc 1 81 0
	movs	r2, #0
	.loc 1 78 0
	str	r0, [r3]
	.loc 1 80 0
	ldr	r3, .L8+4
	strh	r1, [r3]	@ movhi
	.loc 1 81 0
	ldr	r3, .L8+8
	strh	r2, [r3]	@ movhi
	.loc 1 82 0
	strb	r2, [r3, #2]
	bx	lr
.L9:
	.align	2
.L8:
	.word	.LANCHOR2
	.word	.LANCHOR3
	.word	.LANCHOR0
	.cfi_endproc
.LFE2:
	.size	failsafeInit, .-failsafeInit
	.section	.text.failsafePhase,"ax",%progbits
	.align	1
	.global	failsafePhase
	.thumb
	.thumb_func
	.type	failsafePhase, %function
failsafePhase:
.LFB3:
	.loc 1 88 0
	.cfi_startproc
	@ args = 0, pretend = 0, frame = 0
	@ frame_needed = 0, uses_anonymous_args = 0
	@ link register save eliminated.
	.loc 1 90 0
	ldr	r3, .L11
	ldrb	r0, [r3, #32]	@ zero_extendqisi2
	bx	lr
.L12:
	.align	2
.L11:
	.word	.LANCHOR0
	.cfi_endproc
.LFE3:
	.size	failsafePhase, .-failsafePhase
	.section	.text.failsafeIsMonitoring,"ax",%progbits
	.align	1
	.global	failsafeIsMonitoring
	.thumb
	.thumb_func
	.type	failsafeIsMonitoring, %function
failsafeIsMonitoring:
.LFB4:
	.loc 1 93 0
	.cfi_startproc
	@ args = 0, pretend = 0, frame = 0
	@ frame_needed = 0, uses_anonymous_args = 0
	@ link register save eliminated.
	.loc 1 95 0
	ldr	r3, .L14
	ldrb	r0, [r3, #2]	@ zero_extendqisi2
	bx	lr
.L15:
	.align	2
.L14:
	.word	.LANCHOR0
	.cfi_endproc
.LFE4:
	.size	failsafeIsMonitoring, .-failsafeIsMonitoring
	.section	.text.failsafeIsActive,"ax",%progbits
	.align	1
	.global	failsafeIsActive
	.thumb
	.thumb_func
	.type	failsafeIsActive, %function
failsafeIsActive:
.LFB5:
	.loc 1 98 0
	.cfi_startproc
	@ args = 0, pretend = 0, frame = 0
	@ frame_needed = 0, uses_anonymous_args = 0
	@ link register save eliminated.
	.loc 1 100 0
	ldr	r3, .L17
	ldrb	r0, [r3, #3]	@ zero_extendqisi2
	bx	lr
.L18:
	.align	2
.L17:
	.word	.LANCHOR0
	.cfi_endproc
.LFE5:
	.size	failsafeIsActive, .-failsafeIsActive
	.section	.text.failsafeStartMonitoring,"ax",%progbits
	.align	1
	.global	failsafeStartMonitoring
	.thumb
	.thumb_func
	.type	failsafeStartMonitoring, %function
failsafeStartMonitoring:
.LFB6:
	.loc 1 103 0
	.cfi_startproc
	@ args = 0, pretend = 0, frame = 0
	@ frame_needed = 0, uses_anonymous_args = 0
	@ link register save eliminated.
	.loc 1 104 0
	ldr	r3, .L20
	movs	r2, #1
	strb	r2, [r3, #2]
	bx	lr
.L21:
	.align	2
.L20:
	.word	.LANCHOR0
	.cfi_endproc
.LFE6:
	.size	failsafeStartMonitoring, .-failsafeStartMonitoring
	.section	.text.failsafeIsReceivingRxData,"ax",%progbits
	.align	1
	.global	failsafeIsReceivingRxData
	.thumb
	.thumb_func
	.type	failsafeIsReceivingRxData, %function
failsafeIsReceivingRxData:
.LFB10:
	.loc 1 131 0
	.cfi_startproc
	@ args = 0, pretend = 0, frame = 0
	@ frame_needed = 0, uses_anonymous_args = 0
	@ link register save eliminated.
	.loc 1 132 0
	ldr	r3, .L23
	ldrb	r0, [r3, #33]	@ zero_extendqisi2
	.loc 1 133 0
	subs	r3, r0, #1
	rsbs	r0, r3, #0
	adcs	r0, r0, r3
	bx	lr
.L24:
	.align	2
.L23:
	.word	.LANCHOR0
	.cfi_endproc
.LFE10:
	.size	failsafeIsReceivingRxData, .-failsafeIsReceivingRxData
	.section	.text.failsafeOnRxSuspend,"ax",%progbits
	.align	1
	.global	failsafeOnRxSuspend
	.thumb
	.thumb_func
	.type	failsafeOnRxSuspend, %function
failsafeOnRxSuspend:
.LFB11:
	.loc 1 136 0
	.cfi_startproc
	@ args = 0, pretend = 0, frame = 0
	@ frame_needed = 0, uses_anonymous_args = 0
	@ link register save eliminated.
.LVL4:
	.loc 1 137 0
	ldr	r3, .L26
	mov	r2, #1000
	udiv	r0, r0, r2
.LVL5:
	ldr	r2, [r3, #8]
	add	r2, r2, r0
	str	r2, [r3, #8]
	bx	lr
.L27:
	.align	2
.L26:
	.word	.LANCHOR0
	.cfi_endproc
.LFE11:
	.size	failsafeOnRxSuspend, .-failsafeOnRxSuspend
	.section	.text.failsafeOnRxResume,"ax",%progbits
	.align	1
	.global	failsafeOnRxResume
	.thumb
	.thumb_func
	.type	failsafeOnRxResume, %function
failsafeOnRxResume:
.LFB12:
	.loc 1 141 0
	.cfi_startproc
	@ args = 0, pretend = 0, frame = 0
	@ frame_needed = 0, uses_anonymous_args = 0
	push	{r3, lr}
	.cfi_def_cfa_offset 8
	.cfi_offset 3, -8
	.cfi_offset 14, -4
	.loc 1 142 0
	bl	millis
.LVL6:
	ldr	r3, .L29
	.loc 1 143 0
	movs	r2, #1
	.loc 1 142 0
	str	r0, [r3, #8]
	.loc 1 143 0
	strb	r2, [r3, #33]
	pop	{r3, pc}
.L30:
	.align	2
.L29:
	.word	.LANCHOR0
	.cfi_endproc
.LFE12:
	.size	failsafeOnRxResume, .-failsafeOnRxResume
	.section	.text.failsafeOnValidDataReceived,"ax",%progbits
	.align	1
	.global	failsafeOnValidDataReceived
	.thumb
	.thumb_func
	.type	failsafeOnValidDataReceived, %function
failsafeOnValidDataReceived:
.LFB13:
	.loc 1 147 0
	.cfi_startproc
	@ args = 0, pretend = 0, frame = 0
	@ frame_needed = 0, uses_anonymous_args = 0
	push	{r3, lr}
	.cfi_def_cfa_offset 8
	.cfi_offset 3, -8
	.cfi_offset 14, -4
	.loc 1 148 0
	bl	millis
.LVL7:
	ldr	r3, .L33
	.loc 1 149 0
	ldr	r2, [r3, #12]
	.loc 1 148 0
	str	r0, [r3, #8]
	.loc 1 149 0
	subs	r0, r0, r2
	cmp	r0, #200
	.loc 1 150 0
	itt	hi
	movhi	r2, #1
	strbhi	r2, [r3, #33]
	pop	{r3, pc}
.L34:
	.align	2
.L33:
	.word	.LANCHOR0
	.cfi_endproc
.LFE13:
	.size	failsafeOnValidDataReceived, .-failsafeOnValidDataReceived
	.section	.text.failsafeOnValidDataFailed,"ax",%progbits
	.align	1
	.global	failsafeOnValidDataFailed
	.thumb
	.thumb_func
	.type	failsafeOnValidDataFailed, %function
failsafeOnValidDataFailed:
.LFB14:
	.loc 1 155 0
	.cfi_startproc
	@ args = 0, pretend = 0, frame = 0
	@ frame_needed = 0, uses_anonymous_args = 0
	push	{r3, lr}
	.cfi_def_cfa_offset 8
	.cfi_offset 3, -8
	.cfi_offset 14, -4
	.loc 1 156 0
	bl	millis
.LVL8:
	ldr	r3, .L37
	.loc 1 157 0
	ldr	r2, [r3, #8]
	.loc 1 156 0
	str	r0, [r3, #12]
	.loc 1 157 0
	subs	r0, r0, r2
	ldr	r2, [r3, #4]
	cmp	r0, r2
	.loc 1 158 0
	itt	hi
	movhi	r2, #0
	strbhi	r2, [r3, #33]
	pop	{r3, pc}
.L38:
	.align	2
.L37:
	.word	.LANCHOR0
	.cfi_endproc
.LFE14:
	.size	failsafeOnValidDataFailed, .-failsafeOnValidDataFailed
	.section	.text.failsafeUpdateState,"ax",%progbits
	.align	1
	.global	failsafeUpdateState
	.thumb
	.thumb_func
	.type	failsafeUpdateState, %function
failsafeUpdateState:
.LFB15:
	.loc 1 163 0
	.cfi_startproc
	@ args = 0, pretend = 0, frame = 0
	@ frame_needed = 0, uses_anonymous_args = 0
	push	{r3, r4, r5, r6, r7, r8, r9, r10, fp, lr}
	.cfi_def_cfa_offset 40
	.cfi_offset 3, -40
	.cfi_offset 4, -36
	.cfi_offset 5, -32
	.cfi_offset 6, -28
	.cfi_offset 7, -24
	.cfi_offset 8, -20
	.cfi_offset 9, -16
	.cfi_offset 10, -12
	.cfi_offset 11, -8
	.cfi_offset 14, -4
.LBB31:
.LBB32:
	.loc 1 94 0
	ldr	r4, .L88
.LBE32:
.LBE31:
	.loc 1 164 0
	ldrb	r3, [r4, #2]	@ zero_extendqisi2
	cmp	r3, #0
	beq	.L39
.LBB33:
.LBB34:
.LBB35:
.LBB36:
	.loc 1 132 0
	ldrb	r5, [r4, #33]	@ zero_extendqisi2
.LBE36:
.LBE35:
	.loc 1 170 0
	ldr	r3, .L88+4
.LBB39:
.LBB37:
	.loc 1 132 0
	subs	r2, r5, #1
.LBE37:
.LBE39:
	.loc 1 169 0
	ldr	r6, .L88+8
.LBB40:
.LBB38:
	.loc 1 132 0
	rsbs	r5, r2, #0
	adcs	r5, r5, r2
.LBE38:
.LBE40:
	.loc 1 169 0
	ldrb	r8, [r6]	@ zero_extendqisi2
	.loc 1 170 0
	ldr	r2, [r3]
	.loc 1 171 0
	cmp	r5, #0
	.loc 1 169 0
	ubfx	r8, r8, #2, #1
.LVL9:
	.loc 1 170 0
	ubfx	r9, r2, #26, #1
.LVL10:
	mov	r10, r3
	.loc 1 171 0
	ite	eq
	moveq	r7, #3
	movne	r7, #0
.LVL11:
.L43:
	.loc 1 182 0
	ldrb	r3, [r4, #32]	@ zero_extendqisi2
	cmp	r3, #5
	bhi	.L70
	tbb	[pc, r3]
.L46:
	.byte	(.L45-.L46)/2
	.byte	(.L47-.L46)/2
	.byte	(.L48-.L46)/2
	.byte	(.L49-.L46)/2
	.byte	(.L50-.L46)/2
	.byte	(.L51-.L46)/2
	.p2align 1
.L45:
	.loc 1 184 0
	cmp	r8, #0
	beq	.L52
	.loc 1 186 0
	ldr	r3, .L88+12
	ldr	r0, [r3]
	ldr	r3, .L88+16
	ldrh	r1, [r3]
	bl	calculateThrottleStatus
.LVL12:
	cmp	r0, #1
	bne	.L53
	.loc 1 187 0
	bl	millis
.LVL13:
	ldr	r3, .L88+20
	movs	r2, #100
	ldr	r3, [r3]
	ldrh	r3, [r3, #6]
	mla	r0, r2, r3, r0
	str	r0, [r4, #16]
.L53:
	.loc 1 190 0
	cmp	r9, #0
	beq	.L54
	ldr	r3, .L88+20
	ldr	r3, [r3]
	ldrb	r3, [r3, #4]	@ zero_extendqisi2
	cbz	r3, .L54
	.loc 1 192 0
	bl	failsafeActivate
.LVL14:
	.loc 1 193 0
	movs	r3, #3
	strb	r3, [r4, #32]
	.loc 1 194 0
	mov	r3, #1000
	str	r3, [r4, #28]
.LVL15:
	b	.L43
.LVL16:
.L54:
	.loc 1 196 0
	cmp	r5, #0
	bne	.L70
	.loc 1 197 0
	bl	millis
.LVL17:
	ldr	r3, [r4, #16]
	ldr	fp, .L88
	cmp	r0, r3
	bls	.L57
	.loc 1 199 0
	bl	failsafeActivate
.LVL18:
	.loc 1 200 0
	movs	r3, #3
	strb	r3, [fp, #32]
	.loc 1 201 0
	movw	r3, #3000
	str	r3, [fp, #28]
	b	.L43
.L57:
	.loc 1 203 0
	movs	r3, #1
	strb	r3, [fp, #32]
	b	.L43
.L52:
	.loc 1 210 0
	mov	r0, #1024
	.loc 1 209 0
	cmp	r9, #0
	beq	.L58
	.loc 1 210 0
	bl	enableFlightMode
.LVL19:
	b	.L59
.L58:
	.loc 1 212 0
	bl	disableFlightMode
.LVL20:
.L59:
	.loc 1 215 0
	movs	r3, #0
	str	r3, [r4, #16]
	b	.L70
.L47:
	.loc 1 220 0
	cmp	r5, #0
	bne	.L85
	.loc 1 224 0
	bl	failsafeActivate
.LVL21:
	b	.L43
.L48:
	.loc 1 230 0
	cbz	r5, .L72
	.loc 1 231 0
	movs	r3, #5
	strb	r3, [r4, #32]
.LVL22:
	.loc 1 232 0
	mov	fp, #1
	b	.L61
.LVL23:
.L72:
	.loc 1 180 0
	mov	fp, r5
.LVL24:
.L61:
	.loc 1 234 0
	cmp	r8, #0
	beq	.L62
.LBB41:
.LBB42:
.LBB43:
	.loc 1 125 0
	ldr	r3, .L88+12
.LBE43:
.LBE42:
.LBE41:
	.loc 1 236 0
	movs	r7, #2
.LBB46:
.LBB45:
.LBB44:
	.loc 1 125 0
	ldr	r3, [r3]
	ldrh	r2, [r3, #14]
.LVL25:
	ldr	r3, .L88+24
	strh	r2, [r3]	@ movhi
.LVL26:
	strh	r2, [r3, #2]	@ movhi
.LVL27:
	strh	r2, [r3, #4]	@ movhi
.LVL28:
.LBE44:
	.loc 1 127 0
	ldr	r2, .L88+20
	ldr	r2, [r2]
	ldrh	r2, [r2, #2]
	strh	r2, [r3, #6]	@ movhi
.LVL29:
.L62:
.LBE45:
.LBE46:
.LBB47:
.LBB48:
	.loc 1 109 0
	bl	millis
.LVL30:
.LBE48:
.LBE47:
	.loc 1 238 0
	ldr	r3, [r4, #20]
	cmp	r0, r3
	bhi	.L63
	cmp	r8, #0
	bne	.L64
.L63:
	.loc 1 239 0
	movw	r3, #30000
	str	r3, [r4, #28]
	.loc 1 240 0
	movs	r3, #3
	b	.L86
.LVL31:
.L49:
	.loc 1 246 0
	ldrb	r3, [r6]	@ zero_extendqisi2
	orr	r3, r3, #2
	strb	r3, [r6]
	.loc 1 247 0
	bl	mwDisarm
.LVL32:
	.loc 1 248 0
	bl	millis
.LVL33:
	ldr	r3, [r4, #28]
	add	r0, r0, r3
	str	r0, [r4, #24]
	.loc 1 249 0
	movs	r3, #4
	b	.L86
.L50:
	.loc 1 255 0
	cbz	r5, .L65
	.loc 1 256 0
	bl	millis
.LVL34:
	ldr	r3, [r4, #24]
	cmp	r0, r3
	bls	.L70
	.loc 1 258 0
	bl	isUsingSticksForArming
.LVL35:
	cbnz	r0, .L67
	ldr	r3, [r10]
	lsls	r3, r3, #31
	bmi	.L70
.L67:
	.loc 1 259 0
	ldrb	r3, [r6]	@ zero_extendqisi2
	bic	r3, r3, #2
	strb	r3, [r6]
.L85:
	.loc 1 260 0
	movs	r3, #5
.LVL36:
.L86:
	strb	r3, [r4, #32]
.LVL37:
	b	.L43
.LVL38:
.L65:
	.loc 1 265 0
	bl	millis
.LVL39:
	ldr	r3, [r4, #28]
	add	r0, r0, r3
	str	r0, [r4, #24]
	b	.L70
.L51:
	.loc 1 273 0
	bl	millis
.LVL40:
	ldr	r3, .L88+20
	movs	r2, #100
	ldr	r3, [r3]
	ldrh	r3, [r3, #6]
	mla	r0, r2, r3, r0
	.loc 1 274 0
	movs	r3, #0
	.loc 1 273 0
	str	r0, [r4, #16]
	.loc 1 276 0
	mov	r0, #1024
	.loc 1 274 0
	strb	r3, [r4, #32]
	.loc 1 275 0
	strb	r3, [r4, #3]
	.loc 1 276 0
	bl	disableFlightMode
.LVL41:
	b	.L43
.LVL42:
.L64:
	.loc 1 283 0
	cmp	fp, #0
	bne	.L43
.LVL43:
.L70:
	.loc 1 285 0
	cbz	r7, .L39
	.loc 1 286 0
	mov	r0, r7
.LBE34:
.LBE33:
	.loc 1 288 0
	pop	{r3, r4, r5, r6, r7, r8, r9, r10, fp, lr}
.LVL44:
.LBB50:
.LBB49:
	.loc 1 286 0
	b	beeper
.LVL45:
.L39:
	pop	{r3, r4, r5, r6, r7, r8, r9, r10, fp, pc}
.L89:
	.align	2
.L88:
	.word	.LANCHOR0
	.word	rcModeActivationMask
	.word	armingFlags
	.word	.LANCHOR2
	.word	.LANCHOR3
	.word	.LANCHOR1
	.word	rcData
.LBE49:
.LBE50:
	.cfi_endproc
.LFE15:
	.size	failsafeUpdateState, .-failsafeUpdateState
	.section	.bss.deadband3dThrottle,"aw",%nobits
	.align	1
	.set	.LANCHOR3,. + 0
	.type	deadband3dThrottle, %object
	.size	deadband3dThrottle, 2
deadband3dThrottle:
	.space	2
	.section	.bss.failsafeState,"aw",%nobits
	.align	2
	.set	.LANCHOR0,. + 0
	.type	failsafeState, %object
	.size	failsafeState, 36
failsafeState:
	.space	36
	.section	.bss.rxConfig,"aw",%nobits
	.align	2
	.set	.LANCHOR2,. + 0
	.type	rxConfig, %object
	.size	rxConfig, 4
rxConfig:
	.space	4
	.section	.bss.failsafeConfig,"aw",%nobits
	.align	2
	.set	.LANCHOR1,. + 0
	.type	failsafeConfig, %object
	.size	failsafeConfig, 4
failsafeConfig:
	.space	4
	.text
.Letext0:
	.file 2 "/usr/local/gcc-arm-none-eabi-4_8-2014q3/arm-none-eabi/include/machine/_default_types.h"
	.file 3 "/usr/local/gcc-arm-none-eabi-4_8-2014q3/arm-none-eabi/include/stdint.h"
	.file 4 "./src/main/rx/rx.h"
	.file 5 "./src/main/io/beeper.h"
	.file 6 "./src/main/io/rc_controls.h"
	.file 7 "./src/main/config/runtime_config.h"
	.file 8 "./src/main/flight/failsafe.h"
	.file 9 "./src/main/drivers/system.h"