	.syntax unified
	.cpu cortex-m3
	.fpu softvfp
	.eabi_attribute 20, 1
	.eabi_attribute 21, 1
	.eabi_attribute 23, 3
	.eabi_attribute 24, 1
	.eabi_attribute 25, 1
	.eabi_attribute 26, 1
	.eabi_attribute 30, 4
	.eabi_attribute 34, 1
	.eabi_attribute 18, 4
	.thumb
	.file	"maths.c"
	.text
.Ltext0:
	.section	.gnu.lto_.jmpfuncs.2db03ab62f6766f4,"",%progbits
	.ascii	"x\234cb`b\300\006\272\241\264(\003##3\023\020\003\331"
	.ascii	"e\014\014\314@\226\024\303\314\206\216\206\011\034\014"
	.ascii	"\014\015 \360\340[\373I\306LF\240\274\003\003\003\013"
	.ascii	"3\023L%\003\003#\220begcgg\344`\346d\344b\004\252\201"
	.ascii	"\230\303\310\300\315\310#\317\313\014\024\340\003\021"
	.ascii	"h\210\037l\010c\031\310L\001FAF!FaF\021~\006\000\033"
	.ascii	"\370\015g"
	.text
	.section	.gnu.lto_.inline.2db03ab62f6766f4,"",%progbits
	.ascii	"x\234\215S=o\023A\020}\263\273\276\333\363\235\355\003"
	.ascii	"\033\210\211\245\2700\012\005 #DE\204,\201(]SPD\"A\342"
	.ascii	"? Di\241\024\256\020\0259\245\312O\210\004HW\206\016"
	.ascii	"\024\204D\0014)\214\224\012\002\005\242`f\357#\276\020"
	.ascii	"!,yfv\366\315\233\3357{\012\012'\375\016u\346\317\000"
	.ascii	"\213\357@P\303\337\357\003x\311\222\203\023\202\032"
	.ascii	"yX\277K\017\211$\261VF\367\313\350A\031\211q\221'\177"
	.ascii	"\3410\311\322\010f'\034Y\250\015\225R\314\376[\220\222"
	.ascii	"\021\270B\275\301p)\320E\201Mo\272=\0351\325t\254\341"
	.ascii	"\267\216C\324\333\326<\304\010\213:\352m*8>@$`\323\340"
	.ascii	"~\323\361t\\\203_#}\004W\225\032\0077\223v\007\356\026"
	.ascii	"\377\015\365a4\213G3\037\376d\331ig\261\320\345{r\215"
	.ascii	"~\342n\240Q\252\244G\241}}\001\315O\267\371\3403\337"
	.ascii	"(\004\317o16\361\254r\026*\215\026X\214-\352\311\272"
	.ascii	"\357\262}\311\256\010E\200z\314\334n.|*i\2606\027\317"
	.ascii	"\365\\\265\305y\271O\254P\233,\307\240m\257\317=\235"
	.ascii	"\343{tc\003\225<\036:U\353\010\316\223{,\305#(F\221"
	.ascii	"\271\0205s|\",\205\253\215\020\266\211\267e\257\372"
	.ascii	" \234t~E:\036\317P\314\212\230Ux\351Kz$5\015t\257d\252"
	.ascii	"\353L\253~\246X=\336\377\250\020\035\334($\323;\347"
	.ascii	"\214\204\326\205Vh\242\374\226\274\216e\335\233;\177"
	.ascii	"\023\327f8\211\330^\336\375\242\320\332]/\210\305\346"
	.ascii	"\304bsN\261\177\313\361/\327\032\014.Q>zs}\362B#\334"
	.ascii	"\276Si\222\323\361\303D\034-^\224\317\357\325\236)\225"
	.ascii	"?\325\271\372F\276\311{\237?\3302y\272\267\207C\311"
	.ascii	"&\364\353g\243L\267\007?\260\311\335\324>\035<k\227"
	.ascii	"\351\016\232\337y\004n\034\352\354\323\257y\201k\375"
	.ascii	"\007\002\015y\035"
	.text
	.section	.gnu.lto_.pureconst.2db03ab62f6766f4,"",%progbits
	.ascii	"x\234%\301I\022@P\020D\301\247)3\277M\021\242\256`\343"
	.ascii	"\376\247\263\220\031\004\017\277\213\267\"\262\316\006"
	.ascii	"\321\322\271\367\240\361\236\230Y\274\2728\265i\327"
	.ascii	"\241\323\0371\232\0024"
	.text
	.section	.gnu.lto_sin_approx.part.0.2db03ab62f6766f4,"",%progbits
	.ascii	"x\234\215T\317O\023A\024~ofw\273\333\335\266\224\237"
	.ascii	"\2121!&\306\203\011\030=\370\217@\242\336\232\036j\017"
	.ascii	"\205D0\341\306BI\254\004\223\206\2337\220\010Q\024\343"
	.ascii	"I\275 U\023\351\001\225\030c\300\013\022\345\246!&j"
	.ascii	"\214\206\372\336lg\2515\005&\351\367\336\276\037\337"
	.ascii	"~3o;\002\004\324\257Y\372}2\001N\223\305\004`\274\370"
	.ascii	"\212\2348\012e\005\032\312\312\300\226lC\310\311\227"
	.ascii	"\000~\324\034\217\200\357\231\030Qy+\260%;\"\254 o\253"
	.ascii	"\274-\234\302)z\2122z\016z\\5jG\205\253\302\236\012"
	.ascii	"\273:\354a,pb\210\354\000\302H\\H\303\264\"\266\023"
	.ascii	"u\275\030\216\\D\026-O\300\214\357\0277oo\3348\347O"
	.ascii	"\217\025\375\335J\005\263H\333;\216\220F\270@\017\330"
	.ascii	"\245\2140\376\335o\320\271\374\350\373\012\372S\376"
	.ascii	"\350N\245\222\310\242\024\320u\250\306\251\345'\017"
	.ascii	"\31335\235\206\200\223\007u>\020\376f\245\362\353\322"
	.ascii	"Q\204\034k$\220\014\006\203\011\244\333b/\302\236\315"
	.ascii	"\236\303\020\205\024\316\340\011p9\3541\304\030\342"
	.ascii	"\014\011\206&\206$C3C\013C+C\033\267\267#A\007{\264"
	.ascii	"L\030\247Mw\245p\226\010\003Z`\321\264z\011iT\275\030"
	.ascii	"'#\373P\260\001X\207\266\014\266\307)\331\207\022h\244"
	.ascii	"r\025\362\327\363?7\314\024\316\243\011\031\024\031"
	.ascii	"\304N\270\351\027\374\342\021\0328\257\315\037\327\312"
	.ascii	"<\006Ze\020A!\011\240\332\340 \372\320\000\232\253,"
	.ascii	"\303\230\015A\206\212W\340\305\366\350yM\2539\233\376"
	.ascii	"\347\014\326:`\006\333\004\201\220\217]&5\265\344\016"
	.ascii	"j7\224dKK.\344\177o\205\222\215\014\312\303J6\264\344"
	.ascii	"H\275d\251$\177\336\223\2549\223\215%\313\014v\230$"
	.ascii	"\331\260V\224d\233%\363\306KOS\3654v#\032nt\340\231"
	.ascii	"\014F\261\035\323\215\346\276\275\252xN\352b\253Q%\361"
	.ascii	"\324\237\201\245\337\032\345\267\362\246KkW\353\345"
	.ascii	":\373\311u\341#\006c\330M\350\306\310\301r\227B\271"
	.ascii	"v\243\267\020O\275\\[\277\325\343\323\255\231\230\243"
	.ascii	"h'\362\363\037P\363F)\252\022!E\360\267\240L\265x\341"
	.ascii	"\255\320\305\256*\326\211\271\270\216{\024\254\352\333"
	.ascii	"\341\033\250\252qyni\261v7\337\302I\305\250\247\332"
	.ascii	"0]\251i\330}\377z\257a\"\277\345\351\206\270R\032S\361"
	.ascii	"B~1\214'(U%zSC4\275\372\274PKt+<\307&E\224\250*\372"
	.ascii	"\032n-I)\275\205\032\"\377\316\273\273\265DK\341\301"
	.ascii	"5\253\343HV\025\265\353p\213:\242\346\340k'\317r\376"
	.ascii	",t\322\240\243\364\321\333\356\344\227c<\227\030\317"
	.ascii	"e\215\356w\036_kP\333J\275\336\275\373\3107\021R\236"
	.ascii	"\257\212\316\356\236\301+\351\236\\*\333\337\223\036"
	.ascii	"\310\345\006\372\311\037\272<\330\235\0061|\326\030"
	.ascii	"\316\366\017Y\014\335g\376\002\300\020\234\320"
	.text
	.section	.gnu.lto_applyDeadband.part.1.2db03ab62f6766f4,"",%progbits
	.ascii	"x\234}\221\317J\303@\020\306\277\331\177)!O 9\370\004"
	.ascii	"\015y\024\261\005=\226\034j\017i\301zT\232\032\017\012"
	.ascii	"9\024\337\240\350\305\223\010\336C\301\203=(\344\350"
	.ascii	"A\350E_#\316\244DP\304\205\235\231\375v\3667\263\273"
	.ascii	"\012\012\277\307>\317=\002B\366\324\001y\213W\016<R"
	.ascii	"\215WJ\22712\337T!\262@\223\023u\3361\312\212\340;\331"
	.ascii	"\014l+;\"\011@\230yJ\033\353hvHM\225{\225m\352\372\375"
	.ascii	"\261`2\245\004\305\206482b\254\030\036\026\027Y\266"
	.ascii	"\330\005\222f\331c+\300\036y\342u\237T\343\237\361\364"
	.ascii	"\271\252\317\006\264$\213!\321\001\215\350\307\245\372"
	.ascii	"\314.c\375\202\374*_\006m\236\346\324!#\260\206\332"
	.ascii	"j\\\225\345\366\214A\025\012\373cu\355\376c[\224\276"
	.ascii	"\260/\363\273o\266\371\233m\3323\256i|\215\363\016\266"
	.ascii	";\026\2500\337\0247\324\"\254d\276\301rG\272x8e\240"
	.ascii	"a\244\261\267\261\274\000\011@\276o\247\033M\217\223"
	.ascii	"(\035\214\306Q2I\323\311\230\343\223\243i7\301\027\026"
	.ascii	"\256Y\217"
	.text
	.section	.gnu.lto_sin_approx.2db03ab62f6766f4,"",%progbits
	.ascii	"x\234\205R;K$A\030\254\372\272\307]\037\240\251\202"
	.ascii	"\307\"&r\260\253\302\345\376\010\005\015\227\011\274"
	.ascii	"\011v\205\323@0\260\327]A\214\026\003\037\221.\"\010"
	.ascii	"\012\206&\006\202\006\032\3708\316\304L.\270\340\300"
	.ascii	"\007\210\034\\p\343\327\263\356ygb\303Lu\327W\325\365"
	.ascii	"M\367\010\004o\307\200>\277\010|Td\000J\365\034(\245"
	.ascii	"E\354\301\007\270\026s\225\203k3\264\236\246%=\202\230"
	.ascii	"\025c9;F\277\205\364\240\346\334\322\315\374\312r\347"
	.ascii	"\342\306\\\325\375\211cF\324\260n\"$Fu\301L\002b\377"
	.ascii	"OO\234\325\303\375\247\023\272%Wz\210\343\366\210F\320"
	.ascii	"\373\236qO\016o\342xw\347\362S3\021\321\012\013\204"
	.ascii	"A\236\233\354\201U\254)\006ZA\012ZI{\215\332\002T4/"
	.ascii	"S\227\275\204\177\273]5\257\341V\320\367^8|]\307\260"
	.ascii	"\276\217Z1BQ0g\230[/\337\377d\236[z\220\3434\343\312"
	.ascii	"\343\024R'\352\231J\003\252\274+?~\227\206\322\276\260"
	.ascii	"\345\005\323\240\002e}42\232s\202\343\037\245\201\277"
	.ascii	"\245\204\037\372\247\233\021\265WR\346\002\225tC\224"
	.ascii	"\236\301o\267\352:\"\006!\223f\225\224\210M~v\215\224"
	.ascii	".\204\336i}\353_\365\306\275\200\365*\273\260\346\224"
	.ascii	"H\016M\266\233u;C\377\271T\261\377\205\272\262\271\311"
	.ascii	"/a\256\220\217\212\271p\242P\230(\352|\352\363d6D\323"
	.ascii	"tT\234\312\366[\0172=\370\014(\350}4"
	.text
	.section	.gnu.lto_cos_approx.2db03ab62f6766f4,"",%progbits
	.ascii	"x\234]\2171\017\001A\020\205\337\233\313\205RK\024~"
	.ascii	"\201\3733\024J\331\342\\q$\350\024V\216\270\362Z\245"
	.ascii	"?@\247%:\005\242W\370\017\022\205\206Y\027\012/y\263"
	.ascii	"\263\3117ow\004\202\177\225\325\033uUM\017\224\354\004"
	.ascii	"L\212B\272\006\304X8n\361\303\256ew{\275V\327\331\276"
	.ascii	"\340\22315.\"<WT>\246\326f5\300|\256\015\255.\242Iq"
	.ascii	"\247wD\222&\333\273\264\271\244\217\220\022\222\025"
	.ascii	",lj\263\"`\235n\217\371\201y\330\031\323\235\377E\275"
	.ascii	"\021\236\312\225\"\3220\377\212\316G\032\214\013\370"
	.ascii	"\243\362\205\032J\350{n\323J=\030\364M\020\267\243n"
	.ascii	"`zq\334\353j?\354\014\352\006o\366\3028L"
	.text
	.section	.gnu.lto_applyDeadband.2db03ab62f6766f4,"",%progbits
	.ascii	"x\234]\216\275J\003A\024\205\317\2713K\026\261\260\024"
	.ascii	"\021\361\0112\344]\014h\031\246X\267\330\004\214\235"
	.ascii	"Ef\243\351,R\332\212\255\350\013X\010Zh\241\"\244\261"
	.ascii	"Kc#\202\245\222\"\361\316\312\2428p\177\346\316=\337"
	.ascii	"\034\201\340\377ii\3145\3265\230\2002~\004\312T\304"
	.ascii	"^m ,\231\211CX6\264qLK\306\012b \306r\260\303\212q)"
	.ascii	"\327\323\305\342\342k\364\266\332 \012B\250\311 '\254"
	.ascii	"v\212-\252\305\004G!\2147\001_]\2674G\\\233\022\253"
	.ascii	"y\300\360\374\360\363\306vx\252\222\214&\323\007\334"
	.ascii	"\341\366\265l\375\231\331_\363m\032L\234y\302(\255\027"
	.ascii	"\222\003\314\302IX\311I\317\037{\212QUN\251E\266\372"
	.ascii	"\356\036\303\024\321Y\026\367\236QN\217\317Xc*\345\013"
	.ascii	"\270\315\\\377\200\274\1774\224m\030]3\312#l\255\351"
	.ascii	"\372{\336\025\235\274\353|\257(z]\355\367w\373M\217"
	.ascii	"o^\332F5"
	.text
	.section	.gnu.lto_constrain.2db03ab62f6766f4,"",%progbits
	.ascii	"x\234]N=JCA\030\234\371v7\210\004\017 \032<A\266\310"
	.ascii	"\011\274C^a\031\236\020S\274\004\214}\236 \202]n\240"
	.ascii	"\366\242B\012\033\013\003!X\210 \244\261K\241^#\316"
	.ascii	">\205\210\013\337\317\360\315\314\216\301\360\377\355"
	.ascii	"\253^T;*\326@\033\277\002\247\033f\341\261\201r\323"
	.ascii	"-\"\312\272\373E\276B\236\341\207\024\310\264\200\030"
	.ascii	"\231\363\201\243\003V\236w\366\264\\\255n\357\347W\227"
	.ascii	"d\215\350\021\306\202pj\364j)F\300YY\216\367\200\274"
	.ascii	"\022\265\325\223Y\246\243\246{\306\354s:9\257wx\315"
	.ascii	"\200.\255K\267N\235\011,b\"}M\037\346[\177H~Mj\013\\"
	.ascii	"\354\272L\247\344\370\246\304\020\251\372\356\035\224"
	.ascii	"\241\335L\016%q\263\226\264\376\243\2254L\344\024p\273"
	.ascii	"\031\207\307y,:\275~\314\007E1\350k?9\0326s|\003L\267"
	.ascii	"A\011"
	.text
	.section	.gnu.lto_constrainf.2db03ab62f6766f4,"",%progbits
	.ascii	"x\234]N=JCA\030\234\371v7\210\004\017 *\236 [\211\265"
	.ascii	"w\310+,\303\023b\212\227\200\261\317\023\202`\227#\350"
	.ascii	"\005\264\262\020,\014H\260\010\202\360@\304\306\302"
	.ascii	"x\2158\373\024\".|?\30373;\006\303\377w\240\232\253"
	.ascii	"\266Tl\2006y\006\316\326\314\302\375\016\312uWE\224"
	.ascii	"M\367\213|\215<\303\017)\220i\00112\347\003G\207\254"
	.ascii	"=o\354\341c\271\274\256f\227wd\203\350\021\306\202p"
	.ascii	"j\364j)F\300\270,'\273@^\213\332\352\311,\323Q\323="
	.ascii	"\341q1}=ovx\305\200.\255K\267J\235\011T1\221\276\246"
	.ascii	"\357\263\215?$\277\"\265\005.\266]\246Sr|Qb\210T\177"
	.ascii	"\367\006\312\320\346\267G\222\270\317=i\375x?i\230\310"
	.ascii	")\340f+\016O\362Xtz\375\230\017\212b\320\327~z<l\345"
	.ascii	"\370\006\245OAw"
	.text
	.section	.gnu.lto_devClear.2db03ab62f6766f4,"",%progbits
	.ascii	"x\234cb`b@\007\222@<\003\210e\200\230\221\231\201\221"
	.ascii	"i\3029\006\206F\016&FF\020\203\201\221\241\236\211\261"
	.ascii	">\222\021\254v=\323\201\007\377\377\257\373ql\301>F"
	.ascii	"F\026&\306\\\2600+CKC\303\004\005\006\206d07\004H\202"
	.ascii	"\264\20622\201h\346\263\014M;v\274\377\300\230\310\270"
	.ascii	"\220\221\225A\233aU\003\020\030f22\314f\230\305\230"
	.ascii	"\311\310\230\316\310\024\001\244!.K\202X\304\000\022"
	.ascii	"\0013.24>\330\247\014\321\013\003!\214\214 \223A:\244"
	.ascii	"\364\364\213\213\222\365s\0233\363\364\223\363ss\363"
	.ascii	"\363\200\354\222\214b\275d\006\000\310\3060\037"
	.text
	.section	.gnu.lto_devPush.2db03ab62f6766f4,"",%progbits
	.ascii	"x\234\225S;H\003A\020\235\331\217\011&\361HL!b!\330"
	.ascii	"\0310X\012bo\237\200\2261EL\021\005\177mN\317B\255\304"
	.ascii	"B\374 h'\026\321R\033\211 \304 \212vA,\304Fk\003b\247"
	.ascii	"\263{\331\323\370\215\013y\263\331\3317\357\315,\307"
	.ascii	"\200\301\347\325O?\024\000\035*6\001\262\345K\200Y?"
	.ascii	"c\274d\201\335,\312\003`\0079J\367X\230\215DT\033@\310"
	.ascii	"3.$\346\207Q\227\333g\305\273\327\327\302Ji\373\026"
	.ascii	"\261\215c\016A@\026A*\360\321_\014\320\016\203\012B"
	.ascii	"\012Z\024X\012\302\012\"\012Z\025D\025PE\011\363\266"
	.ascii	"\275\334\011\220\326\012\011B\245\234D\246\"\277\200"
	.ascii	"\271\233\312S\021S\270\203\0222(b\320MR\233\260\201"
	.ascii	"Yd\031\344C\024\271\3666\202\246\351\013p\026\234\031"
	.ascii	"C\221\304R\267\000ujn\320M\304`\317\246\325\373G5\342"
	.ascii	"\003\234\301\351\303\311\252\317\253\350\2253+I\254"
	.ascii	"\222\245\334\236\257U+\242Na\232\032\375^\001k\012>"
	.ascii	"\355\253|\020\250\343\365\375\310cu\274\243\303\352"
	.ascii	"#k\220\351\306vX\267\375\024\263\210\236\177\001\345"
	.ascii	"\001=\355\227\352\2434\215\006\364\264\177u\241\247"
	.ascii	"\275\350\3343\303\011\222/bjk\273\31617\347!=I\272\274"
	.ascii	"\345\035\265\350\333\241\332\203\025\274\022\026\361"
	.ascii	")\373\317\251\230iZ\232w\263\366|\345\011\205\177\353"
	.ascii	"\203\177\354\343\311\343Dt\037\272\230\263\364\241\217"
	.ascii	"Vm:\362\305t\224d(\373O\323\242f:\352\362\016\237\033"
	.ascii	"~JV\327n\271\3228\223\277k\272o/\365\247v\015\263w\267"
	.ascii	"]n\015\263\0224U\312)\255\366\236\370\344D:\236Ke\307"
	.ascii	"\342\351\361\\n|\214\366S\243\223=ix\003~\257\342t"
	.text
	.section	.gnu.lto_devVariance.2db03ab62f6766f4,"",%progbits
	.ascii	"x\234mQ\261J\003A\024|\263\273\227;E\024,\003J\020+"
	.ascii	"\205\004\375\201\374D\002Z\306\003\343\025\227\210I"
	.ascii	"\237K.\202e\012\213\250\010\212\215\235\202\215(B\012"
	.ascii	"\213 D\260S\253T\026\026\266J\010\234oO7\250\370`\367"
	.ascii	"\315\355\316\314\233\345\004\011\372[\313\274n@4\317"
	.ascii	"\035\026A\264\356\211\352\216\020\262\235\245`\\}LR"
	.ascii	"0!\241\276\216\025\240\001\201jB*\324V\241=0G\307A\320"
	.ascii	"\352o\017\036\355\213\335N\363(\030F\021\340\201\347"
	.ascii	"\315\200\\\320\012\177 \0257\241~\0078\023\235~\024"
	.ascii	"\015\257\233w\263c\240\002\216\331M\302\007)\362 -\336"
	.ascii	"(\241\221\255\221\363M\340\262\250\3113S\244\355\271"
	.ascii	"r\274\353hy\010\335e\217\032\317\355AW\024p\302\317"
	.ascii	"*B-\322\002\273\034\320>gPEH\235\305\212\023\254\301"
	.ascii	"d\351\322\355K\375\035#\215\346H\374\010\233\207\244"
	.ascii	"v66?\23764+\266\246\377\255\215\272G\341Nx%\215&a\334"
	.ascii	"#S\250iR\3434|\035e\266\231\027+\017\303\267\221\322"
	.ascii	"\341\201|e\362\250\370\265\017T\357X\206\021\217|\""
	.ascii	"0W^N%i/p\370\200\023\306\277?\307\367,\3210\231\316"
	.ascii	"T\266\334\214_\360J\031\267\354\373\345\022\343\352"
	.ascii	"F%\355\222\355\255W\375\315\364\322'\275\236u\366"
	.text
	.section	.gnu.lto_devStandardDeviation.2db03ab62f6766f4,"",%progbits
	.ascii	"x\234]\217=\016AQ\020\205\317\231\353\212\250\264Da"
	.ascii	"\005\336f(\224r\013n\361H\320)\336\223(\224\226@\364"
	.ascii	"4\026\240\323\021\235\362m\200\005h\230\373\374\024"
	.ascii	"&9gf\222/g2\002\301\177UU{U]E\003\312\362\004\314JB"
	.ascii	"\206\001D\"L:\314\331\235\034\262\347s{=\256\356dQ\030"
	.ascii	"\023\006\236\260\301\264,\346i\272l\000._[\352!\244"
	.ascii	"M\011\335\2341\317n\233r\227kZ\364h\246x\244\213\264"
	.ascii	"\342I\307\367\201\036\305+\014%\017\366\313\331\037"
	.ascii	"g\034\345\303\031\317\002p\001\177\324\373\235\226&"
	.ascii	"\351\255\200\325\232\321x\344\242\270\353\007\221\033"
	.ascii	"\306\361p\240\363\244?n:\274\000eX4\203"
	.text
	.section	.gnu.lto_degreesToRadians.2db03ab62f6766f4,"",%progbits
	.ascii	"x\234]O\275\016\301P\030=\3476M<\201\204\030<\200\350"
	.ascii	"\3130\030\245Cu\250&\330]j\020\011\272\332j\353\304"
	.ascii	"+\330L\225\330\214v\233U\344\372.ap\222\363\375\236"
	.ascii	"\234/\237\202\302?*\302\\X\023\322\001Uz\002&%E\332"
	.ascii	"\002\304Xq\334\341[\273W\207\2531\273\3731{\220.\031"
	.ascii	"Q\014C\302\261A\340b\246uZ\007\374w\333\222hM\332T6"
	.ascii	";\005\246yr[7\272\334\322E@\025P\024\005\222ER\376\316"
	.ascii	"\034\031W\261\321s\235^\2141\262\327\026\331\362\271"
	.ascii	"\342\347\310\031\374\211?/\264\304F\374\355o\325\246"
	.ascii	"7\034\370^\324\015\373\236\037GQ\334\227z\324\0336}"
	.ascii	"\274\000\361\0078\355"
	.text
	.section	.gnu.lto_scaleRange.2db03ab62f6766f4,"",%progbits
	.ascii	"x\234\205R=K\003A\020\235\231\273|\\r!\235\240 \206"
	.ascii	"TV\311?\261\212\240e\274\342Lq\011\030+\233\\\270\024"
	.ascii	"Q\024S\330\010\026\306 \330\331\331z\215\210\205\202"
	.ascii	"\275E\012\177\200\330\372\261\276\335\313\211\332\270"
	.ascii	"p\2633o\336{;\267\254\220\320\3375\217O\000W\260\263"
	.ascii	"E,\243\007\242~^\230uBL=\341\336:k\252Ti\034\206\243"
	.ascii	"\351\215z\341\3430\036\234\206\357J1\267\030\266\213"
	.ascii	"L\036\323\032\012\256\230M\354\337\347$\332\370\363"
	.ascii	"\326\035\365\207\241R=#[\372Ov)\361T\251\247\353\347"
	.ascii	"\375\023\276\2202s\000\031\002F\205\201\215L2\010VV"
	.ascii	"\2279j\362\230\253\224\007b;(&(\012\272SD\260\\\235"
	.ascii	"\225t\006\343\014\0150O%\021$L\322\263`5\020\365\317"
	.ascii	"\257\262\350\335\272\247h7z;\\i\3629g\310g\313g\366"
	.ascii	"\321#\323xuS<\353\263\355#\323\370^\264\223\3029\243"
	.ascii	"\310\022\335\221$Xr(:3\213\217r\312u|\316\033\213\037"
	.ascii	"\334\211\341:\206{\020M\216\226Sr\301x;3\2233I\361\""
	.ascii	"\206\303\210\006\037FW\234\342\256\221\024g\370\\\012"
	.ascii	"\227L\007\364G\372\246\226\222\333o\000\306\015\350"
	.ascii	"W\263P\253w\267\274z\320l\265\353^'\010:m\344\333\233"
	.ascii	"\335\232\247U\033_\015Dz\024"
	.text
	.section	.gnu.lto_normalizeV.2db03ab62f6766f4,"",%progbits
	.ascii	"x\234\225S\317k\023A\024\376\336\354l\222n\177\205\206"
	.ascii	"\006\011*E\361\240\205.x\365\337hA\217q\221t\301\244"
	.ascii	"`{\363\320\251\331C\351)\307\252\264X\012\025zh\213"
	.ascii	"\275zH\017\202=T-\364\240\342!g\021A\017\"\"\306\367"
	.ascii	"v3\353\252P\322\307\346\233\331\227\371\336\367\275"
	.ascii	"7\254\202\302\277q\235\177\256\006.\363J.H\265^\001"
	.ascii	"K\005\245\234\023\037\306\323\317/\302\0149\244\223"
	.ascii	"\264&\222\015\010\213\312\321\264x\213\244\006]\302"
	.ascii	"\2061\255\316\213\315w\264o\332\321\023\363\263\333"
	.ascii	"%\012\211\365.\020\002\302M~\241\211xQ\372o\003\273"
	.ascii	"\252\335\351v?\034G_\257\236s\250N\320`\242+\220\023"
	.ascii	"\310\013\024\004\006\004<\201A\201aTi\203\245G\344e"
	.ascii	"T\240\310t\032\223]I`\\\240, =\"b\213\023\011\005\342"
	.ascii	"\211c\232Q\372\231!%\253s\204\007\357W\267\016t\225"
	.ascii	"6y\0265\322\223\270\306\364\307x\304\306\235\0329\322"
	.ascii	"@\342\3776\331\006\216\320\\i~&\313q\231V\223CR\354"
	.ascii	"M\305\246s\247\225\242l\251o\312r\362L\343'\316/7\237"
	.ascii	"\245\371B\254\222O$Z\201M\017\234&\241\262\022\277\034"
	.ascii	"\313\361\230\306OOb'\355b0V\361\200\327\210\332\347"
	.ascii	"mv\370>~\230eS\014\311\015z\246\371h(\026\017\321\263"
	.ascii	"\227L\230\317\002/\021}:\330_\031J\351\025<4\005&\205"
	.ascii	"\351\360$f\310\301\211\037\017\377\355\326\227\264\313"
	.ascii	"\221>\207\277\326\374\230\332\036eZ,\315\305\016\367"
	.ascii	"\274$=\211m\303q#[\254\370\1771f'\023\375\23611\326"
	.ascii	"\347\265eM\224\230vv\023v\234\245\304\304\352\323?&"
	.ascii	"\306\373\274\330\254\2112\323\316nB\365L\224\355\315"
	.ascii	"\350\370\2738\306Rg\375JR\303\3064;\346\377\204Q\231"
	.ascii	"\362\347\357\005~\275\0326\374`\256^\237k\360~av~*@"
	.ascii	"\356\356\235Fma\3667\316G\337O"
	.text
	.section	.gnu.lto_buildRotationMatrix.2db03ab62f6766f4,"",%progbits
	.ascii	"x\234\235UMHTq\020\237y\373\351\356\372\205\206\266"
	.ascii	"\242\254\037Y\344\027\021\024\021\321\245k7\213$\010"
	.ascii	"l\017\266\007\025\262\203\332\301\247\356\301\202\300"
	.ascii	"K\006\325A\021\0215\025[\"\251C{\0112\262\262\210\310"
	.ascii	"\016\011\035\202n\021\205}\271\315\314\377\275\335}"
	.ascii	"\372\242\335}\340\314\374\377\373\373\315\314of\337"
	.ascii	"\252\201\006\333\237\335\364\347\366\001\234#\217\016"
	.ascii	"@m\3649\300\240WC\344\000\020\0064\034hC\206\372j`B"
	.ascii	"\327G7\036\317\276\303\230\036\217\216\353\277\023\011"
	.ascii	"\304\010R\332J\2040\302\031:`H\234\346\264\326Q\\\375"
	.ascii	"\3653|\242G\343\211\304q\241\325dH\373`\245\355\315"
	.ascii	"\220\366\313Jk\314\220vc\325B;\220!-f\245\035\312\214"
	.ascii	"\026\177\373\364\332A}|hT\337\242i\012\363h\206\005"
	.ascii	"\337[\345\235\310\220\226\260\322N\346&\357\364\377"
	.ascii	"h\213Z|#\221\270\375&\372\252i\237\206\235\010\016 "
	.ascii	"\242\023\332q\002k\300E~\222\274\233/=t\230\242\203"
	.ascii	"\227\3744\371<\276\364\321a\206\016~\362s\344\003\344"
	.ascii	"\347\311\347\223_$_@~\211|!\371\030\371\"&\025S!,\341"
	.ascii	"\250\224M\031\233r6A6\025l*\331T\261\011\261\251fS\313"
	.ascii	"\246\216M=\033z\\\020%\321!\325\254jU\365\250:T\255"
	.ascii	"\251\306T[\252)\325\222j\010x@\364\264\222\345\227\351"
	.ascii	"\024j\354\035\2530\264\276<\367Ek\307{\350\202\016t"
	.ascii	"4\300~*\332\000\263:=}\021t\334\202\2334Pg\007j<X\227"
	.ascii	"\214\363<\202\341\215\000^@4\0364\2238/\303O}D/\212"
	.ascii	"\240;l (s\004=\000+`\224Rb\010+\334\361\005\227Iv\245"
	.ascii	"\223\265\177\221'\205L\335\260\200\3154\001\356,\005"
	.ascii	"hv\002<v\002\334\333{\230\222\036<J\300rR\200\327N\300"
	.ascii	"\016\362\264\220\275J\300\362BJ@^\226\002\034v\002|"
	.ascii	"v\002\362\266\3670#=\370\224\200\007I\001~;\001;\310"
	.ascii	"sB\366\263\200\341\253\303_\257W\231\364\000\245\224"
	.ascii	"\275\246\201\347\005\0340\300\337v\231\330|\312\260"
	.ascii	"\035\273(\330|\003\373#\211-\240}K\267i\330%\301\026"
	.ascii	"\030\330?Il\241`\375\026lL\260\205\006vz\354\210\011"
	.ascii	".\222\206=\262\212\225\227>u\335\004wx\376\307h\025"
	.ascii	"4\377A\012\017G\320\333\201\305\274\203<\031\012G\276"
	.ascii	"\344O\014\345\221\0143\303sc\215f\352\022#/\025\374"
	.ascii	"\214\346e\251\334\373s\253\207\251z\245*\303\346\335"
	.ascii	"5-\273\034Z*\207\327\350.6\326f\266W&\243V\037\214\014"
	.ascii	"\177O\266].\353*\313\246\355\200\335\230\312\215\222"
	.ascii	"\367S%\203\2621U\362JZ\311\012\3716\005s+\2316\251\012"
	.ascii	"c3\017S\233\2514~=,\233\251\222\373\254\276\011\001"
	.ascii	"\273\251V\031\231\037\215\2355S\207D\212)q+Y\262Z\244"
	.ascii	"\207\262)Yn7\325j\243\344\307T\311ZY\230\271\310T\311"
	.ascii	":Ypmn%\323\246Zg\224\374\224z\225\352iz\362>\347\222"
	.ascii	":m\200\365\000k0\270\261\276Ge0\237V\372-\243\377Z\014"
	.ascii	"\0146\267\364\\\014\267t\266G\272Z\302\335\235\235\335"
	.ascii	"]\024_\272\320\323\034\006g\270\273\247\327\331\023"
	.ascii	"\351\352\345\250\217\243>\216\3729\352\367r\304\010"
	.ascii	"/\237$\340\033\206\313\015\007\177\001\360.I\263"
	.text
	.section	.gnu.lto_rotateV.2db03ab62f6766f4,"",%progbits
	.ascii	"x\234\225\225\315O\023A\030\306\337w\266\237PK\371\012"
	.ascii	"\264\320\246i\353I\240\211z\362\346\377\200\011x\321"
	.ascii	"\332C]\223\202\001b4\036\030\012$D/\365\242\211^J\214"
	.ascii	"\206\210A\243\027\20316\234\344\340\327M\203\207\236"
	.ascii	"\364\200'\017\006\215\261\276\357l\267K\247\004\333"
	.ascii	"Ixfw:\317\373\314\374fw\021 @oa\372\373\346\0058M=\032"
	.ascii	"\200\242\370\016`\301'\020\371\002\020\346\005\316O"
	.ascii	"\"Ou%`U\226\213\225\007\233\237qA\226\227J\362O\265"
	.ascii	"\212h\"\225\215\"d\021&\350\006KB\365\"\325\030\304"
	.ascii	"fY,\277\276y\347\304\233R\241(\377\222\327DC@\312\261"
	.ascii	"\306-\247\213\246\037\203GR\312\020\315\260\214\262"
	.ascii	" \245_%\032&\272\004\2148\256\363\226+\320\230w\001"
	.ascii	"\341\240\005\310\257\245B\275\016\245\037\377Oz\006"
	.ascii	"\037b\202\212a+\305N\265XL;\206'\242\\\251V\277\357"
	.ascii	",m\245S\002\363\010\006\011\272\201\034\036\026/\213"
	.ascii	"\217\305\317\322\301\322\311\022`\011\262t\261\204X"
	.ascii	"\272YzXzY\372X\372Y\006X\006Y\302,\021\226!\226a\226"
	.ascii	"(K\214%\016\031\274O\313LP\277F}\222\372u\352\251\271"
	.ascii	"a\211v\035\267\266\221\301U5\232Uh\306I\371\2119C\233"
	.ascii	"\243\336x\013\205\315\345\352\355\261\014n\320Nr\030"
	.ascii	"\277\007w\371\274s(\030\214\033\300\372\205\3326\010"
	.ascii	"\353\332\312\245\271\000lw\333\336\204\346u\035\350"
	.ascii	"]S\336\204\346Mj^\337\201\336u\345M\002\274\207\345"
	.ascii	"\312\356r\320\236s\035~\313\025>:O\266\366\004\344\320"
	.ascii	"\340Aj\267\250\234\327\202P\233n\242O\245\177y\361\362"
	.ascii	"\227a/\300=\012#\224?\012\217\331t\315D\277\345\341"
	.ascii	"\325t\324\037\201\306;\256\262xc\361\031\332E<\004%"
	.ascii	"\307\021\\\275\030\263\207\275\015\265w\260\2618\036"
	.ascii	"Z\374\247\260\253\370\210\032\325R\343+\213\033\365"
	.ascii	"q\277\312\255m\351\351%{\270\243!\364\225\2471T\034"
	.ascii	"\032\272\031\260\253t\022\356\034OP\241?\352\270\002"
	.ascii	"*\267S\205n\177\360X\303\326\033$\217P\254u\234.\347"
	.ascii	"1\332\367\252\223\333Z\354\247}\374\203\255\363Gm\265"
	.ascii	"\016\377.\305?\250\363\017\265\301_/\356\360\357V\374"
	.ascii	"CM\374{Tn\267\316\277\267\015\376z\250\303\277O\361"
	.ascii	"\357m\342\337\257r\373\332\344o\277\033\375\326b\367"
	.ascii	"\366\361\037h\235\277\320V\353\360\037T\374\007t\376"
	.ascii	"\3416\370\353\305\035\376\021\305?\334\304\177H\345"
	.ascii	"Ft\376\303m\360\327C\035\376Q\305\177\270\211\177L\345"
	.ascii	"F\333\344/j\374c\354\333\332\255\177\327xY'\341\271"
	.ascii	"\\\341\377\322\324>\302Be\357h\375\013\250\3328\235"
	.ascii	"\036}\261\271Dd,=;\223M\3473\346T:;\235\317OO\321\365"
	.ascii	"\334\305\331\261,x\350b\306\274\352\275rn.\17795\341"
	.ascii	"V}\355n\262\326\237\375\007\343\326\263\032"
	.text
	.section	.gnu.lto_quickMedianFilter3.2db03ab62f6766f4,"",%progbits
	.ascii	"x\234\255T\337KTA\024>g\356\336\337\253\202\313\212"
	.ascii	"\011\211\031\021B\272\020\365\220\375\013=\272Po.Kl"
	.ascii	"\373\260**\275vw\335p\251\250%\202\260\002\225\020%"
	.ascii	",#\353!\013\334\304\007\005\225\202\202\242\036,A\210"
	.ascii	" (\010\204~lgf\356\275\273f\353\0224p\317\314=\347\373"
	.ascii	"f\316\371\346\334\313\200\301\237c\230\236n\015\240"
	.ascii	"\215f\014\002\262\374\032@\332`\030\220\013E.\236\031"
	.ascii	"\001\246\254t\202c\251\213!p\202*\323r\007\351M\347"
	.ascii	"6\250\241.\321:3\204\333\024n\003M\3516\231\3652Bn\373"
	.ascii	"i3\271-\264\245\333F\344\013@8\307\224\200\252\351\206"
	.ascii	"i\331x\356\024\362\304\224V\030w\234\253\353\3477\336"
	.ascii	"\253#\327\012\3311\347G\261\210\230D*b/B\034\341$\275"
	.ascii	"`\213\230X`{U\202\233/\\_\273\214\316X&\357\374\"j\022"
	.ascii	"\025\006\373J\314n\311\014\376\2259\262veO\0313\300"
	.ascii	"`\177\2653gXa\275X\234\376\222]8\326\204\020\303\011"
	.ascii	"l\005\235\346q\232\015\240\274ML!X\264Rm2Z\215\213\251"
	.ascii	"\345/u\334\324s\023\342&\314M\0037\215d\370A*d)\257"
	.ascii	"\226\030\336&\012\360Tht\221\245\353\210\"\243IY\206"
	.ascii	"\314\372\245\341Z\0379!\2201\234D\025\304\202;x\346"
	.ascii	"~\342QT`\245SY\205\314\347\241\257,\206S\204L\240\236"
	.ascii	"@\332w\025\206.(\236\313 /g\002\247R\344\242\037\261"
	.ascii	"\022hR\234{3s\252\347\265o\302\015~\020\3059Mu\317#"
	.ascii	"\314\362\363\006\011j\207i\207\306(\207\311\252\304"
	.ascii	"\261b\320\006\342\230\334\320\035?\253\032\012\213\344"
	.ascii	"9h\031\\\277,\212\242^A\001\240\226\342R\030\340\007"
	.ascii	"\211\261\004\331\315t\324\333KnT\372\030\336\000\272"
	.ascii	"\272\260\034U_\243L\231|/\225\253J9\277{\275\361\021"
	.ascii	"\245\216\011\254m\207C~\312\234\245\227\365\000\007"
	.ascii	"\347m\017Z\267\003\212%\350\022,n\246\217\372\273\022"
	.ascii	"\272\024\213\242\006\037L^E\341\204{\235\262/\235\007"
	.ascii	"\216c\212/A\021\005\034\250\326\224\333\356\377\236"
	.ascii	"P\243\326\275\207\346\030\336-\335\303[\254P\224H\214"
	.ascii	"\023\362\211m\204Q\255Bi\342\004Y\205\356\011x\277\337"
	.ascii	"+\264~7M\204|g=hh\007\264\354\367%\344\373\251\371\333"
	.ascii	"\022\274\\?\303\323oK\331E\300\030\316\320\247\363\017"
	.ascii	"\012>\022\012\326\273\012NRS<,)2kUT$\344\345e\372\212"
	.ascii	"<\361;*\\\265\243\346}lC\325\226z\345\267_\230\340\345"
	.ascii	"\232X\360\315\026\232\334\322\377\247&sB\223\260\333"
	.ascii	"$\337)\325\307%M\346\353*j\022\366\362\262=M\2666\332"
	.ascii	"\274\334\033]\376\361]ze\341\023\223p\0118\002\263N"
	.ascii	"\216\377\345)\370\002\322\005\325\337K\022\272\350?"
	.ascii	"\260\030\342-\324\324\021\031\350\217GR\261dO$\336\233"
	.ascii	"J\365\366\320z\360\314@G\034\224d\307a\354\303d`\360"
	.ascii	"t\252\3577\252{n\252"
	.text
	.section	.gnu.lto_quickMedianFilter5.2db03ab62f6766f4,"",%progbits
	.ascii	"x\234\265V\337\213\033U\024>\347N&\223d2\311&)[LI\310"
	.ascii	"\326]\322\226v\367\301\037\017\372/\370\330\005}\014"
	.ascii	"\213\304<\244-m\361\265\263\233\205.\212\032\304\007"
	.ascii	"\177\322-\262\264\210Zi\025\264[\330\254\254\320U\272"
	.ascii	"V\260\240\266\017\353K\213U|\250\017Vj\273=\347\336"
	.ascii	"\2713\223M'\351B;\2203\223\357~\347\336s\2769\037\211"
	.ascii	"\000\001\233\257\277\350\363\254\015\260\233\356\270"
	.ascii	"\015P\264\327\000\246\023\002c\352\301P\017\313\211"
	.ascii	"\2300\336X\006pSf\313\0017m\212\370\\\225\276Y\034\323"
	.ascii	"q\264\024\335\022\011\011'%\234\300\244\202\223\"%a"
	.ascii	"[\302)\264\025l\213\264\204\035\011\247\321Q\260#2\022"
	.ascii	"\316J8\203Y\005g\305\220\204s\022\036\302\234\202s\""
	.ascii	"\377\363\004\301\205\013e\202\363XPp\001\221\037\000"
	.ascii	"\341\2300bf\334J$Sv\332\311d\207r\371\002\036{\011\271"
	.ascii	"{c'\234t\335\267\327\027n\374n\276\367Ngv\336\375\177"
	.ascii	"c\003\261\201\244T\011a\012\341E\372\202\025y\023\261"
	.ascii	"n\351dn\273\363\315\332\233\350\316\317\264\335{\224"
	.ascii	"\332@C\300H\2209\257\356b\333\003S\027\327\336z\"\224"
	.ascii	"\032\023\360\344\240C\317\210\316\372\306\306\205\177"
	.ascii	"f\177{n/B\015\027p'\330t?I\3674P\341\0166\0212\364d"
	.ascii	"f)\304s\036'\317_\012\034\2069l\347P\344\260\203C\211"
	.ascii	"C\231C\205\303\010\207Q\016c\034\252\034vq\330C\201"
	.ascii	"\0132a\226\352\257\324\360c\332\032\270d\272\366S\244"
	.ascii	"\331\230DA7c\025f\326?:\236\361\231\013\222Y\303Sh\202"
	.ascii	"|`\200;\364\033\234D\003h\304\214K0\363w\353\226\250"
	.ascii	"\341i\242\326\321\256#m|\011Z\257\031\032J\023\312\251"
	.ascii	"\300\271\264\362\272\277\222\251\243C\353\214\316\234"
	.ascii	"75\232\375\000\336\347\223h\235\323L\357@\342\254^\036"
	.ascii	"V\244}\360\251K\327\011\246\251\266\344\261\362\242"
	.ascii	"\015\3441s\255O\374\252r\264,\253g\322*x\270\352\212"
	.ascii	"VuG1\240!d-\022\340/R\306E\230\275>=\251\367R\033\005"
	.ascii	"/\372W@O\0301g\321f\306\351$\357e\262\254T\363\265\333"
	.ascii	"7\376@%d\035\363\373`\257_2gY\241aar\333\326\324B\017"
	.ascii	"\025\003\352EX\271>\375\214\277+\261\203\265I\214\303"
	.ascii	"r\234\273\350\274\340\275O5\300\356Y\327MJ\317\030r"
	.ascii	"z\307\006Mo\327\000|.\325\310{\357\241\\\303\317\202"
	.ascii	"\367p\025#\232\222\205qB\273\336\225p\"\036\321\232"
	.ascii	"<Auai\001\2778\254\033\035\356\321\304\330$\337\253"
	.ascii	"\232\272\275\207\032jN\312w7\356oK\364\260~\011\255"
	.ascii	"\337m\243\217\2005<C\336\331\202\202_I\005\207=\005"
	.ascii	"O\321P|\031(r.\025\321\230\254MJx\266;\343\337TD\177"
	.ascii	"\362\014\325I\322\327p\321\237\301\342\300\031\\\362"
	.ascii	"\271;\372\011.U\274\342\017l\221\350a\025SZ\305\017"
	.ascii	"\255G\251\342\242T\261\350ir\207J=\037h\262\224\215"
	.ascii	"T\261\250\353\262\265&\357\336\014\214Y\352\347\266"
	.ascii	"nc\226\007N\226o\314\022\261\303\222\244\037\306\230"
	.ascii	"[V\244#\025)\005\316\\\212vf\310he]\225\323k\264\312"
	.ascii	"@9|\243\215\364PC\177[6\031\255B\364\260\036\231\307"
	.ascii	"c\264\357\244 \225\220\321V\242\215\026Rd$d\264\225"
	.ascii	"h\243\211 \243\242;\311>\300h\243\375\224\331d\264\261"
	.ascii	"-\030m\224\350a\025\207\036\217\321~\220*\216z*\336"
	.ascii	"\242R\277\0174\271\223\211\324dL\327\225\323\232|\035"
	.ascii	"2Z\365\341\215\266k\340d\371F\253\022;,I\036\376\263"
	.ascii	"\036\275\321.KE\252\301/\332\217\321\277h!A\252\272"
	.ascii	"\252\202\026\344\227\233\273u\345{\274\374\347\373L"
	.ascii	"\312\267\177\012EW\204\247\341\234;\307\377]i\361'\230"
	.ascii	"\356\230\376^*a?\375gi9\274Cq|\342\310\341\251\211f"
	.ascii	"\255q`b\352`\263y\360\000=\037}\345\310\370\024\030"
	.ascii	"\215\361\247\360\0206bG_n\036\272\017\030{x\030"
	.text
	.section	.gnu.lto_quickMedianFilter7.2db03ab62f6766f4,"",%progbits
	.ascii	"x\234\265X]h\\E\024\2363w\357\376\345ww\263\331\335"
	.ascii	"d7Ik\212\011I\263\201\304\224\324\024RR\212\017>6\240"
	.ascii	"\217K\220\230\207\264\245-\276v\363#\006\005\015\342"
	.ascii	"\203\177\320\026\251-\242\255\264\012\245\025\272-E"
	.ascii	"[j\203\025\305\212\025\323>D\304\332\322\202X\254\032"
	.ascii	"\3179\263\367\336\331lnv\003\335\373p\356\335o\276\231"
	.ascii	"9\347\273\363\335\231D\012)V^\323 \304\207a!:\361\031"
	.ascii	"\332\004\310\371\005!\246\374\022<\352\301P\017\027"
	.ascii	"\374\036i\234\270$D6h\336\016\210l\265)\275sO\342/\037"
	.ascii	"\305j/\370\024\335'\375\014\007\030\366C@\301\001\031"
	.ascii	"d\270\212\341 T)\270JV3\\\303p5\324(\270F\3262\\\307"
	.ascii	"p-\324)\270N\3263\034b\270\036B\012\016\3110\303\021"
	.ascii	"\206\303\020QpD60\034e\270\001\242\012\216\312F\206"
	.ascii	"c\0147BL\3011\031g8\301p\034\022\012N\310&\206\233\031"
	.ascii	"n\202f\0057\313$\303)\206\223\220RpJ\266|\227F\270\365"
	.ascii	"\213\026\204[\240U\301\255\000\364 @\034\224\206\307"
	.ascii	"\364\372\374\201`UuMm]}(\034i\2106\306\342\211\246\346"
	.ascii	"d\252\245\025\016>\017\364N\214\215\342H6\373\346\342"
	.ascii	"\313wo\231\357\274\225\233=\234\375gy\031`\002\360\375"
	.ascii	"\245@\214\201x\016\177\340\333\242\233\364\024\276P"
	.ascii	"\356;\237\373e\341u\310\036\236\236\317\376\207]'\300"
	.ascii	"\220b\203\323sQ\335er\325\256\367\027\336Hh]=R<Qj\322"
	.ascii	"\2232\267\270\274|\347\317\331\213C\317\200\310\300"
	.ascii	"Q\330(Bx?\202\367\260\300\304#0\011\242\001\237\314"
	.ascii	"(\006o,\317\211\323\217\004\205$\205\024\2056\012\033"
	.ascii	"(\264S\330D\241\203B'\205.\012\335\024\322\024z)\364"
	.ascii	"Q\350\2470@a\013\205A\012[)\014Q\330Fa\230\302v\012"
	.ascii	"#\024vP\330\211\201\2121\305,\326\336\226\201\0170-"
	.ascii	"A\345\342\265\013#\256\366Q\220x3\256\210\351\3053\257"
	.ascii	"\324\332\314\243\314\314\30010\005?\020@\352\330\342"
	.ascii	"\214\202!\3204\30651}w\346\201\314\300q\244\216Ch\034"
	.ascii	"p\340kb\346U\303\202\302\210RWA}\261\3455\273\245a\034"
	.ascii	"\"\330N\350\364Y\323B\243\357\211wi&l\247nf~B\344\\"
	.ascii	"\371\246Q\2216\213\217\263x\035\"\232*\213\247\345\013"
	.ascii	"\007\340i\346f>\262\263\212a3gO\244+\"\217\253\252\260"
	.ascii	"\325\252\310#p1\223\026~a7b\217\313bvij\324\032K\015"
	.ascii	"\344\265\327\307\217\002\362\302\3109\037\016f\034\017"
	.ascii	"\320X&\311\2129\337\274q\3677PB\216C|\263\350\266S\246"
	.ascii	"^>m\241\021y\276\312\242&\212\250\246C\275,.-M=e\217"
	.ascii	"\212l\247m\024\274\342\276\207\252\310=\233\177\237"
	.ascii	"j\361gOe\263\001\366\233\301+\177S\251\225_\260\000"
	.ascii	"N\260\032\361\374{h\311\300'\316{\370\011\\\212\342"
	.ascii	"\304\250\303\374xA\207C^\227\322x\006U\205\317\022\360"
	.ascii	"\323}V\241\311\222\362\275dQSETc\205|\377z\355a\221"
	.ascii	"\256\353\347\267\364{h\254!`\006N\242w\326\241\340\347"
	.ascii	"\254`2\257\3401\\\024\2379\212\234\016\272J\230\312"
	.ascii	"Kx\252\260\307_A\227\372x\016UI\300\326\360\234\275"
	.ascii	"\006\333\212\224\001']\026\361\274\315\335P\304u\326"
	.ascii	"\275R\361{{\301\266!]W1h\251\370\276\357q\252x\216U"
	.ascii	"l\313\253\370\000S=\353h\362\250\326\2452\316\215U|"
	.ascii	"T\330\343|\235K}<\207\252\244\312R\361\241f\345\366"
	.ascii	"\"i\264\003H\241\2257\025Q\265\002\013\255\334\216l"
	.ascii	"]\304\352r\254\274n\015/\260\206\355\216\227s\356^\266"
	.ascii	"\253\342\314,/\347\334\275\354q:\264[e\324\024{\271"
	.ascii	"\243|/w\256\265bWx\271\003\351\272\200\265\225\361\362"
	.ascii	"W\254`\207\346\314/\335\235\251\255\302\016+\257\272"
	.ascii	"U\234\331\265\3267k\2053\273Kn\017\2163\273\220\256"
	.ascii	"kR_\031g~\315\232ti\316\274\352\356L\355k\325\2559\363"
	.ascii	"\252\2733\265=\242\313\252$d\251\370\366=\307\231\351"
	.ascii	"\362\235\331[\362\373f;3\215l]\304pE\234\371-k\230v"
	.ascii	"\234y\275,g\366:\316\274\356\356L\355\333\226\266\312"
	.ascii	"\210\024;\263\257\244~\2663\373\327\261\313\366!]\027"
	.ascii	"\260\2412\316\274\301\012\366i\316\374\241\254=\263"
	.ascii	"\317\312+\272\2123\007\326\341\314-\353\3303\007\220"
	.ascii	"\256k\322X\031g\376\314\232\014h\316\274Y\2263\267X"
	.ascii	"y\305,M\316h>\033\\k[+\364\331\326\362\017\263\203\310"
	.ascii	"\326%\211W\304g\267Y\221A\307g\267\334}\246mh[\255\254"
	.ascii	"\022\305\266\031*y\256\262m\263\255\344\201\300\261"
	.ascii	"\315\020\322u=\232*c\233_Y\220!\355p\272\344~8\3256"
	.ascii	"\264m\232\321\226\334\215\246i8dU\322\274\212\321\206"
	.ascii	"\327q8\335^\362\343\343\030m\030\351\272\212\311\312"
	.ascii	"\030\355\017VqX\333\320\356\270oh\232\321\206\255\274"
	.ascii	"R\366_\215\232\321FJ~}\354:w\224\177\324\034A\266.I"
	.ascii	"\213\370\333|\374F{\300\212\2148F\273\357n4M\220\035"
	.ascii	"VV\255\366\331\373^\247\225\371\316|\377\247\327\020"
	.ascii	"\345\342\357R\321\025\241_\234\316\316\321\377\212\260"
	.ascii	"\361\272\230\312\231\366X\252\303.\374;\377v\200\366"
	.ascii	"\271\246\236\364\376}c\351\311\314\304\356\364\330\236"
	.ascii	"\311\311=\273\361\371\300\213\373{\306\2041\321\323"
	.ascii	"\017{a\302s\340\205\311\275\377\003F\210'a"
	.text
	.section	.gnu.lto_quickMedianFilter9.2db03ab62f6766f4,"",%progbits
	.ascii	"x\234\265\231khTG\024\307gf\237y\277\223\335M\262Iv"
	.ascii	"\223\335d\243\033\2105BB#D\224\010\221Ht%\201H\214i"
	.ascii	"I\363!**\375\352\346\001M[\320\320\372\241\326\202J"
	.ascii	"\021\245\264\265h\013E\005c)V\301\324\326\266\240T\254"
	.ascii	"-\255\324\026,\250\255\257\326t\316\231\235{gws\367"
	.ascii	"\001\356~8{\367\177\317\334{\316?\363\2733\2270\302"
	.ascii	"H\354\307\301%\207\213\220&~L\227\020\312f\277&d\302"
	.ascii	"\316\250Y\034\230\304\301y\273\231\231\216_ $\234m\371"
	.ascii	"\335F\302\271\026f\235\361\363_6\210\271Vj\023\3516"
	.ascii	"fG9\013e;\315\022r\026\313F9\007\345l\232#\344\034\226"
	.ascii	"\213r\036\312\2714O\310y,\037\345\002\224\363i\201\220"
	.ascii	"\013X!\312E(\027\322\"!\027\261b\224KP.\246%B.a\245"
	.ascii	"(\227\241\\J\313\204\\\306\312Q\256@\271\234V\010\271"
	.ascii	"\2029Pv\242\354\240N!;\231\013\345J\224]\264R\310\225"
	.ascii	"\254\012\345j\224\253h\265\220\253\231\033\345\032\224"
	.ascii	"\335\264F\3105\254\026\345:\224ki\235\220\353\230\007"
	.ascii	"e/\312\036\352\025\262\227\325\243\334\200r=m\020r\003"
	.ascii	"\363\241\354G\331G\375B\366\263F\224\233Pn\244MBnb\201"
	.ascii	"\357[\270\334|\326\315\345\000m\026r3\245p@(\331\303"
	.ascii	"Lf\213\325f\317\312\316\311\315\313/(,*.)-+\257p8]\225"
	.ascii	"U\325\356\232\332:\217\267\276\301\347ol\0124\323=\003"
	.ascii	"\024f\212\311C\216\204\303o\335:z\377g\313\201\375s"
	.ascii	"\323\207\303\377.,P:F\371\254\252\246d\204\222~\376"
	.ascii	"\203\326\342\0273GO3\034;;w\340\312^\032><9\033~\306"
	.ascii	"\207\216Q\023#u\372\310\303L\014\255_t\350\301+\373"
	.ascii	"\234\312P3#\336d7=\301\346n-,\234}<\375\344\305\227"
	.ascii	"(\031\246G\251\207T\360\357#\374\333Ax\341N:N\211\213"
	.ascii	"\037Y*y\260VGr\334\360\243\006\202\007\202\027\202\017"
	.ascii	"\202\037B\000B3\204 \204\026\010\255\020\226Ah\203\260"
	.ascii	"\002B;\204\016\010\235\020VB\350\202\260\012\302j\010"
	.ascii	"k tCX\013\241\007\302:\010\275\020\326C\350\203\260"
	.ascii	"\001B\010\302&\010\375\020\006 \014B\330\014a\010\302"
	.ascii	"\026\010[y\000#,d\232\373V;L\337\347-\021\260\212\177"
	.ascii	"6\362\310\371\015Q\306\277L\227\310\344\255\371\327"
	.ascii	"\362\265\314\243\2309L\217Q\013\301\003\020\300Y\315"
	.ascii	"\330\0205\021\376\0300\315\223\311\273S\367\3300=\316"
	.ascii	"SGi\305(\345\027\236'So\230\244\344\340*\014%0\226\237"
	.ascii	"yS;\343\032\245N~\036\324\311\323\026\251V\036$\357"
	.ascii	"\302\235\370y\030f\211\334\220\347\\\372\246\\$-%\037"
	.ascii	"\206\371\347\020\244\211\266\360\266\370\341\027\300"
	.ascii	"\333\314L}\240UU\315Oc\365\220t\211Dt\321\025?+;2\023"
	.ascii	"\016\005xa'\332I>\342\"\231\276=\021\222\327\022\027"
	.ascii	"\262ks\353:\241\021c\330\214\215_\314t<\013\256e\001"
	.ascii	"[y\3157\036\335\277C\205\221\243\324\275\224,\321J\206"
	.ascii	"Q6\252]\007\032\2741\233#Sk\342R\225G\366E\362\345\355"
	.ascii	"\211\345\332Uy\266~.D\255\344\201\011\272\230\353\211"
	.ascii	"\374=\0058\341\223\341p\026\262jBj\032\222Q\0235\001"
	.ascii	">F7\334\221\277\203{\230~\244\377\035~\244\006Maa0`"
	.ascii	"v4j\300!\253Akx\007\321\205M\032\370\311N\331\250'\316"
	.ascii	"\023\245b\264\357U\231\352\215K\265\350\251h\337\177"
	.ascii	"V\355\262<]\365\317.\375{dJ`\3400=\301\331I\303\301"
	.ascii	"\317\320AO\304\301c|R|\252;r*\333\2401\254\015-<\031"
	.ascii	"=\342a\266A\177x\017\321I\226\346\341\031m\016\372\342"
	.ascii	"\234\261\305\230xN\313\365\307\345\352\363^\270\370"
	.ascii	"\2036a}<]u1[\272\370\236\355y\272x\006]\364E\\\274\307"
	.ascii	"K=\255{\3624\337\2403\254\015]|\032=\342\\\201A\177"
	.ascii	"x\017\321I\216t\361\235\177t\224\003q\326(\365F\243"
	.ascii	"\334\234\210\372h\224\003<[517\025\224\323\366\360<"
	.ascii	"z\030\320Y\2363fY\033\217\225I\226\347\214YV\340\017"
	.ascii	"\3106\362\342Y\016\306\231b\212\361Oc\271%\021\3661"
	.ascii	",\007y\272j`~fX\376\012\035\014*,_0fYk\014k\323X\276"
	.ascii	"`\314\262B\177PvR\260\010\313\255q\316XcL\324Y^\226"
	.ascii	"\210\373\030\226[y\272\352bafX\236G\027[\025\226/\033"
	.ascii	"\263\254u\206\265i,_6fY\241\277UvR$]\374\\a\271-\365"
	.ascii	"eyE\352\313r\033\317VM,\316\010\313\337\241\207m:\313"
	.ascii	"WSZ\227W\350,_5fYY\227\333d\033%\361,\267\247\276.w"
	.ascii	"\244\261.\267\363t\325\300\322\314\260|\035\035lWX\276"
	.ascii	"\226\322\272\334\241\260|\315\230ee]n\227\235\224-\302"
	.ascii	"rg\032\353\362\3124\326\345N\236\256\272X\236\031\226"
	.ascii	"\177B\027;\025\226o\246\264.\257TX\276i\314\262\262"
	.ascii	".w\312N*\244\213\327\024\226\273R_\227W%Z\202\242Y\356"
	.ascii	"\342\331\252\211\216\214\260\374\033z\330\245\243\371"
	.ascii	"\2531\232\312\242\322%\253r\306\243\271:\021o\321h\256"
	.ascii	"I:\251t4W\363t\325\017Wf\320\374\003\015Y\255\240y\307"
	.ascii	"\030M\005\2645\262\256\312E@\353N\372\264\322A[\233"
	.ascii	"\306\242\331\315\323UO\2522\003\332_\350I\267\002\332"
	.ascii	"]c\320\224\307\325Z\005\264\273\306\240)hv\313N\252"
	.ascii	"\265wY\005\264\236\244\0338\315\231u\211\266)\321\240"
	.ascii	"\365\360l\325DwF@\373\033=\354\321A{`\014\232\262\357"
	.ascii	"\350\221U\325\304\203\326\233t\017\241\201\266>\215"
	.ascii	"\375l/OW\375\250\315\014hO\320\220^eE{\234\322\356\264"
	.ascii	"W\326U\267\010h}\211\366J1\240mH\272/\320A\353\343\351"
	.ascii	"\252'\236\314\200\266\200\236\364)\240=3\006M\331)m"
	.ascii	"\220uy\265\367\306\207:6\241\244O\037\255\317MI\037"
	.ascii	">\0326!\236\255ZR\237\021l\246\0318\022\322\367\232"
	.ascii	"S\314p\257\251L\222M\262\252\206xl\372S\337:\016$\335"
	.ascii	"z\353\330\364\363t\325\017_f\260y\035\015\351W\326\247"
	.ascii	"\031\226\312\326q@\001M\031\021\013\2322\251\372e'\376"
	.ascii	"E@\033L\3435ps\322\207\217\016\332 OW]l\314\014h\373"
	.ascii	"\320\305Ae}\332\313\014\327'\305\305AYW\223\366R\247"
	.ascii	"\2006\224:h[R\177\251\033\342\331\252%\001\362\213\371"
	.ascii	"\371\203\266\037\035\031\322A{;%\320\266\310\252\232"
	.ascii	"\265\235\361\303&Y\371\326\310\370\216\004\246|\361"
	.ascii	"'\023\351\"\341\005r*<\003\377\235\341'\277%\023s\026"
	.ascii	"\355Zb\300FJ\371\215\300+W\260e\327\316\221\226\361"
	.ascii	"\341\261m-#\333\307\307\267o\343\307\273_\331\025\034"
	.ascii	"!\246\261\340r\272\203\216\231w\277<\276\343\177\223"
	.ascii	"\200\326\267"
	.text
	.section	.gnu.lto_arraySubInt32.2db03ab62f6766f4,"",%progbits
	.ascii	"x\234\205S=h\024A\030\375\336\314\316\335\336_B\354"
	.ascii	"\024\002\361\032\273\273\316F\264\2677\020\313\343\212"
	.ascii	"u\213K\300\330g\356\366\004\377 \207X\370S$!h%D\020"
	.ascii	",\254N\020\342\025\021\264\021\273k\024EHaa\343\317"
	.ascii	"\371fwg\305X8\2603\337\367\276yo\276}\263\253D\311\321"
	.ascii	"q\226\317[\302M\256(\011\324\350\265H?T\010\262@g\301"
	.ascii	"\2130P\372\326\276\210\255\232aYl\335\000\016\027\310"
	.ascii	"\206\322\201\301\306E89\325\224\035koO\257~\377\214"
	.ascii	"{w\306\303m\373c6\003b\360\350EH\027\262\302\004K\351"
	.ascii	"\242\202\277{I\271\243\361\273\315\315\343v{0\262\277"
	.ascii	"H\215\241\225\234\374\037sO\215\247\263\331\343\237"
	.ascii	"\303\257\347\216A:\330ES\002\364 \206\311\016\223\222"
	.ascii	"\260\2052\021\204\214\202\012#UuQ\215\223\2513\325\015"
	.ascii	"\227\316\271t\336M\013\271\014\207\221!\373Z\022\327"
	.ascii	"\004\307\005\316\364`\031\212\213\236\310`\372e\277"
	.ascii	"\234\357\361\234\016\036\302H\0328\300\365\254}\263"
	.ascii	"\313\014i\245>\220\301a\362tk\261\203G\334\033\301D"
	.ascii	"\240\362\201$7\264\207JD\035W\334\373\262r\263\250\204"
	.ascii	"\021\312\254gh\362\021\036\257F\250\344\370\340\271"
	.ascii	"\361h\355\201\334\247\014\345\252N\316\273\227r\237"
	.ascii	")\277\253\021\241\376/w\256\3406\216p\257'\337\212s"
	.ascii	"\347y\010\367\246\334\311\223j\006\223\331\267\326\236"
	.ascii	"I\331\341\0376\267\247\002\327\222\275\255\363^a\201"
	.ascii	"\257\237\372\344L\236H\336U\346\037\253\336\273@\370"
	.ascii	"\3359\327C)\212d\274\222\227\037\3725\257\205\250\350"
	.ascii	"S\336\013r\373\325'M!}\267\342t\214\273\2747\322\237"
	.ascii	"\036\236*.K\262\353\005K\356O9\321j\257_\356\266{\235"
	.ascii	"x\265\335]\353\365\326V\031_\271\264\336\352\212\216"
	.ascii	"[\247\021\377\006\3250\247\365"
	.text
	.section	.gnu.lto_.symbol_nodes.2db03ab62f6766f4,"",%progbits
	.ascii	"x\234M\314M\022\301P\020\004\340\236\367\342'\211\274"
	.ascii	"\220\310\332Q[Q\205\245\013\260`\3035\034\300\031\260"
	.ascii	"v\006\345%Q\245g\323\363UO\215\203\303\301\320\217\233"
	.ascii	"\023\330\337\001\362\2603\327\320D\240\373\351\030e"
	.ascii	"\364\"\307D\3449\020%\034\212\006\034\211\206\034\213"
	.ascii	"FLEcf\242\224\271(\343D\224\263\020M\030D\005KQ\340"
	.ascii	"TTr&\232\262\022\315X\213*\316\377\262\232M\257\345"
	.ascii	"\322\274\003N\327\273\371\270\234\036\037\363\211\341"
	.ascii	"v\211\316R\254Zg\015\316m\026\015\326\233\367\302\007"
	.ascii	"\337\337\005\207W\227\036\267g\357\325\257\177u\031"
	.ascii	"\377mc\226\241\353\361\005\206nz3"
	.text
	.section	.gnu.lto_.refs.2db03ab62f6766f4,"",%progbits
	.ascii	"x\234cb`b`d\200\002\000\000F\000\006"
	.text
	.section	.gnu.lto_.decls.2db03ab62f6766f4,"",%progbits
	.ascii	"x\234\245Z\017pT\305\031\337}\357rIH\260\301\177\325"
	.ascii	"N;\304\251Z\207\016\211\210\332:\235\321i\265\025\247"
	.ascii	"\245\343\200Ru:M\227\273\007\271\366rG\356^\200\264"
	.ascii	"\343\370\000\203\024Q\011\377#\305\004\205V@\251\210"
	.ascii	"V\245 \027\377\000\022T\020D\202\243\236\261\250\205"
	.ascii	"\211\004\035\204\210r\375v\337\276w\357\355{{yw\276"
	.ascii	"\231\357v\337\336\376~\337\267\337~\373\355\356%\012"
	.ascii	"R\320Ma\204r\360,\271\024!]E\350B\204\320\365 PEu \360"
	.ascii	"5\012!\363\241\337\255\006Y\007\362\002\310v\220\227"
	.ascii	"Az@\016\201\364\201\014\202`\214P9H\025\310E \243@\256"
	.ascii	"\007! \177\002i\006i\001i\005\271\033d\001F\236\207"
	.ascii	"\352)\3436\234\003R\015\262\001d\021\357\213y\037Z\376"
	.ascii	"C\300\256\343\355a\224\357K\333\024\220g@\376-\364\247"
	.ascii	"c)\347\334N]T\367bh{\224\367Sx_K\3576\201g\273\303o"
	.ascii	"K\240\303\026\007n;\307R\\\267\200\243>\014q{\227B\207"
	.ascii	"\365\\\277\205}\331a\377.\220\327\004|\017\347\265\346"
	.ascii	"\011\3636j\313>\220\375 o\013\230C\274_\235\003s\210"
	.ascii	"c\336\007\371\000$+`\372\370\367T\317\307 G8\356\013"
	.ascii	"^\366\361\362K\0017\3101!\256\317\302\226ql?\3101\220"
	.ascii	"\343 '8\307 \037\357Y\220\234\300G\343+\214\334\261"
	.ascii	"\341\264I\341\274\026\027\355O\3132!\316h\214Z1\266"
	.ascii	"\014\352\012v\317\233\312\373`\036\243\024^)pTa\257"
	.ascii	"\037\255\266\013\204\276t-X\363\354\264\333\302]\304"
	.ascii	"\355\371\021\224\227\201\324\202\\\002\362C\201\207"
	.ascii	"\256\247ra\374u\3206\332a?\265}\014\324\307\202\\\203"
	.ascii	"M\237\214\342\343\240\365\353\240\374\231\300K\327h"
	.ascii	"\225\300\373\033h\373\005\310\317\035\334\343\240\274"
	.ascii	"\013\347\347\364\327P\237\000r\033\310$l\352\246\\V"
	.ascii	"\314S}\277\207\367?\010\372\010\327\267\334\261\356"
	.ascii	"\352\034cY\001\322\001r\0036u\206$\343\"<\277\320\372"
	.ascii	"\024(\033\005=4\347T \323\267\226\236\207\261\271\306"
	.ascii	"\232\260;\307a\336\237\226I\201\247\331\207ge\001\236"
	.ascii	"f\316\223\026xZ|xV\025\340i\341<3\004\236V\037\236\316"
	.ascii	"\002<\255\234\347\257\002\317\335<\236\234<!\007\307"
	.ascii	"\006\007\307\335|\036\376\006\345\275 m \367\011|#\321"
	.ascii	"#\306\336\201\354\332\203=\263\2601\337\370:\227S\361"
	.ascii	"\205h\251A\237\271\206\201S\004\327\015Cw`\202\317\251"
	.ascii	"D5\254R]\311f\217\316\345\243\370BVS\315\026\326\227"
	.ascii	"\340\333U\233^A?\300h\024Z\007l\013\015\243\357\273"
	.ascii	"\310\373\\\212\036\243_\236\330\203\3071\274\202\256"
	.ascii	"\305@\262\032\217\264\324\326ZjC\226\016x.Gk)\354\370"
	.ascii	"\202\266\232\020o\223\203\270\271k\260\342\031{6s\352"
	.ascii	"\310.{\354\3105\366J4\217\326\273\346\032\343v\201\263"
	.ascii	"\375\230/Ck\300\214\354\211\265\013~l\030\025\004o\300"
	.ascii	"\324;\006\246CX\213GqM\301\2116\355~n\024#\332\310\210"
	.ascii	"\262\002\021\301\341J\347\020\330\273\325\201\262\301"
	.ascii	"+\325t\232\236\023\360=\274\205\276\224\243\222q\262"
	.ascii	"\331_/\316>\035\274\353\205U\\\341pT\030\2209\373\331"
	.ascii	"#\357w^lt)\226\377r\254\327:i\0100n\0368\333\264q\026"
	.ascii	"\254M\011\000\263Cg\363\177o\035g\265\311Q|\254\233"
	.ascii	"\275\24130\220\331\374^\365^#\233\313uf\214\232\340"
	.ascii	"\253f\313\320\253\346A\305\317M\371EB\360?\301 \202"
	.ascii	"_\010\262J\014a\225\310@\334\274\255\276C=\254=n\014"
	.ascii	"\344r\017\261\340\244#PPG@#\267\227b\244\014\304\215"
	.ascii	"\314x\215|\212-e\276\222\347T aB\350D\313f\344\225\022"
	.ascii	"\"y\215\377\350sQ\036T\004?\313F\377rqQL\360sA`\266"
	.ascii	"\327\334Q,C\361q\356\364\365Z\347\216\335\376\371\217"
	.ascii	"\340\220\334g{D\237\205*]u\341+\257\003\237\366w\340"
	.ascii	";\324\201!\252g+\353\320#uD(\357\276A\033\224\011\016"
	.ascii	"Z\251Y\240W\002\200l\217o\230\313\3424dz\\\006\342^"
	.ascii	"\332\353\353\361\375;zd\036/\2207z}\362\206\263.|\345"
	.ascii	"\365\370kC.\330\267X\354\035*\270`9j\371\3536\352@p"
	.ascii	"\324\266<\352`\000\224$9\310@\334Q\357y\235\336\005"
	.ascii	"\311a\256\324\351\327_ u\372Gn\247W\241\371\2061\233"
	.ascii	"\357\344\347\242vJR\353\330\323\273\260Ep>\2627\365"
	.ascii	"\336\203O\250,o~\214\317\005\232\343\3024\014IC\360"
	.ascii	"\247\314W\377\003\270\011d\304Ff\345j\\k6#\027\243\353"
	.ascii	"\271\004u\321\276\235\375+TcQ5?c\235b6P\244\237\037"
	.ascii	"y\325|x\007\027\233\361\316\036\274\353J\316u\266h\256"
	.ascii	"Z\027\327)\007W\233\032\200\253Bn\027D\245\315\265\240"
	.ascii	"h.\227]\231Mt7\241\036c9bq\020\266\032\037\313\374\036"
	.ascii	"\347\\\022|\024_\006\237\307\360%\360\331\317>\217\263"
	.ascii	"\317\023\354\363\013\370\264\037\377\250'\370\010\256"
	.ascii	"\312s\273\026\375r\325g\321/\312\036\371,\243v\030\231"
	.ascii	"\220\011UP\027\353\326']\215\\\001_\216\017\030m5\230"
	.ascii	"\255\033\304Q\256\301\235\364]\200\013w\232\247\245"
	.ascii	"\221\301W\337Wb\312\243f\024Nrk|\307k|@w\010\212&\370"
	.ascii	"\024[L\203\205\207\312\363\325\322\327\205\303\214\034"
	.ascii	"\346\312Wn\007\015\212\016\372\306\353\240\354@f\333"
	.ascii	"N+C\315\001\317\024\2613\314V|\334$\370\345\011\177"
	.ascii	"\277\014\212~\231\245\004\013\001wF\226\241\270\201"
	.ascii	"\367*~\001q\320\012\010s\004\012z\336\337F\266Q;m\274"
	.ascii	"\257$\033e(n\343<\257\215\260U\017H\202\266\300l,p\317"
	.ascii	"\006\277\374\001\360\212\307\363\031\336\205\262n\221"
	.ascii	"\317\276\253\260}\342A\205\266\277\256\372\336\"\003"
	.ascii	"\020=\265\373r\003\306\335\316h\336V\305;\244\"\334"
	.ascii	"!\025\367]P\241w\301\263\271\\\376.\250\320\273\240"
	.ascii	"\373\227\203\"PB ~\3407\311\013\263mg3\241\025FF\261"
	.ascii	"F?\300\272\335\237\2373\327@\315^\262\231\276\277\360"
	.ascii	"L/\361\235\3513;K9\006w\210Ko\310cpQ\207\344\323\276"
	.ascii	"\3162z\371y\327\312J+\244\013\302q\336=e\037\222\347"
	.ascii	"\204pPP\247}H\236\037\034\364\216\015j\017\016j\337"
	.ascii	"Q\275\020sXG\000\230\344@.\003\361\371\352\364\315D"
	.ascii	"\035\363K9\033nP\212:\033\376\321\302W\263\251]\315"
	.ascii	"\306\270Qq\237\351\262\275\3136^a\376\002\244\0049\326"
	.ascii	"\375\307u\254\333`s\226t\254\313lu\034\237\236,\232"
	.ascii	"\253\326\305\365\242\203\353_A\270\374\216u\366#;\370"
	.ascii	"<\251\330\007\037{%\3616a)m\012\371\036\204\332\036"
	.ascii	"\353\015\231\007!\012\203['\353\266^\032z\214\234oL"
	.ascii	"'i\234\233\260L\020\230\344x@Q\216\207\340\347\275A"
	.ascii	"\012\307\203\275\273\213>?m/\020\241\347\241E\005#\324"
	.ascii	"\272\274,{u\014\213\307\227\224\363\200\345U\301\213"
	.ascii	"C\261P+^\005\244\353\336\222\323j\315\326\241\343\273"
	.ascii	"}\307\003\330\350z\011\217@\013\271\036\347\336\353"
	.ascii	"Q\265K\031\301j\256_\\Y\017Y\000\275\306wC;\240].\244"
	.ascii	"\201\263\217\015\231\232\353\247u\350E\265x\307R6\204"
	.ascii	"\241R\202\351\360\314\231\341\260\007\356Q\350M\361"
	.ascii	"m\301\331C'\225\217\030\342M!\251d\276`\027\3057\003"
	.ascii	"e\224\223\256\214\322o\023\226\226Q\276td\201\317\213"
	.ascii	"\346\252uq\235vp\235\016\302U0\2438\036\247\307\010"
	.ascii	"\336\247\320\353\330[\012\275|"
	.ascii	"\035`\237\007\025\307\025LA_\227\032\020\376\272\363"
	.ascii	"\313\203\340\035L\367N\246\265G\011p\361\353\366\344"
	.ascii	"?\327\"7W\204\014|8\017F\236|9\247\314?_\256\037\344"
	.ascii	"\371\262\233%\276\345\254\333\213\322\304\327\355\310"
	.ascii	"\227\2754_\036f\260UC\300\016\027\310\227/\212\371\362"
	.ascii	"]\337M}KO\321\371\262O<\315\321\264m\277t\373\356+k"
	.ascii	"|\375d\264\347\367\206'X\217\017\003m)\373(\214*\"\370"
	.ascii	"=E)\010\353.\340\242\017E\027\035\361u\321\3427\026"
	.ascii	"\\lt\315\312\344r7T\024\361{\371\261\002\333\212\013"
	.ascii	"\351\211\270~E\366;\305F\1777\256\242\376\350g\376\370"
	.ascii	"\204\371\343\250\324\037\375.\177\270\177\030\227\241"
	.ascii	"\270%\237\371z\347\2317\370\237w\330\376w\214]Q\273"
	.ascii	"\003\232y\242$3e(n\346\347\276f\036\3661\363@@3O\226"
	.ascii	"d\246\014\305\315\374\322\327\314%oz\315\374$\240\231"
	.ascii	"\203%\231)Cq3\277\3625s\377C\245\\\005\316\212\211\243"
	.ascii	"\337\2318\270\221\322w\337\253\337W\376\2769\023\265"
	.ascii	"}\263\225\371\346\233\302\276\341\260\027,\227*h^\030"
	.ascii	"\007\206\235\311\303\036\012\014[hlv\334\345\226\015"
	.ascii	"\201s\335\345\334Y\354\0331\213\315Q\275\007\343\247"
	.ascii	"\262\203\237\237\276\363\221\247\215{\333\214\263\271"
	.ascii	"{6\031\306Q\325\372\023e_\330\351C\346o\005}\032\306"
	.ascii	"\371\227\201\260\360\037\021\356\207\235#g\027\374\313"
	.ascii	"=\265k\221\232?D\232u\253F\177\016\371\216'E\322\177"
	.ascii	"\234\220q-V\355\024)\240\266\024@-\221\242\326\027@"
	.ascii	"-\225\242\350\017r2\324\262<\312y,w\2344\272\024\013"
	.ascii	"s)\307,WG\360\232u\340\0265n/\240q\205\324N\312+Cu\370"
	.ascii	"\333\351\330\237<\367\207\207\275fJ\240\356?\321P\304"
	.ascii	"J\265\330\273\307\337U\377\273G\250\260\325Y[\365\367"
	.ascii	"9\321\252\242U?\"Q\035.\254\332;\261\235E\253\356\222"
	.ascii	"\250\256\260&\353{u\365\351T\244\276\211\304\022\365"
	.ascii	"\221dSS2\001u\2751]\027A#\322\261D\003\2316-\225\234"
	.ascii	"Y7\215\244\364\272+\3037\377\366\366\332\033\021\236"
	.ascii	"ys}K:U\037OFH\274~j$2\232\244\232F'\222\011m\264F&\307"
	.ascii	"F_\335\360\323\321W]9\346\352\346\261\365\256/\352c"
	.ascii	"\211H\274%\252\325\247\365h,\241\3275\242r(\306^\325"
	.ascii	"\240\377\356\333\3615\221Hc,\241\3257D\265)\244%\256"
	.ascii	"7\350\255\323\2644\360W64p\015\347\303@\342\2557i$:"
	.ascii	"\231$\242\346x\306\224M'\361\026\255\"\312[\207\345"
	.ascii	"\007<,\222L\363\352p\027\2622\222L\244\365\024\270K"
	.ascii	"%M\272\032O\316\0105\306\2466\016\263\233\247H=\012"
	.ascii	"\303\205\201k\323\033\364pSC2\036\035\017EB\2331\336"
	.ascii	"|\233h\276MT\241\000\213\246\337\030\327HJ\205J9\310"
	.ascii	"\255-\351\306*('\221T\214$\"\332\371P\237\250\2039$"
	.ascii	"\025\275I\233\036#z,\231\240\316\034sm\203n\016\232"
	.ascii	"\326j\242\332\324\224\246\245oKN Q\000\246\313y\303"
	.ascii	"\2604xZ\233@\022S\2650\030;>\226`\005\231\011\035\322"
	.ascii	":\274\232%\231Y9eZ\303t-\242'S\370\016|'\276kX\"\231"
	.ascii	"j\"\361\330_\264I* B\264[\025\364\001\246\270\226n\320"
	.ascii	"\325\024\2311<\377\016\363Qi\277\205R\311x\274lZL\217"
	.ascii	"4\252\255dF\330l=orK,\036\235\220\324\331\030\306\023"
	.ascii	"=\025\233Y\026\325\342:\0117\261\227\362\024\375N\233"
	.ascii	"\204\247\237\333\334\022\213\374y\274F\207\362\253X"
	.ascii	"\\\327Rc\275M\327x\233~\342m\272n8I\245H\353\304\226"
	.ascii	"\311\267\320\370\010\263\2671fqUY$\331\222\320\177\371"
	.ascii	"mcRo\204)/K7\247\364)\345\211\244\336\230\202X\201I"
	.ascii	"\235\362\1774S6\270"
	.text
	.section	.gnu.lto_.symtab.2db03ab62f6766f4,"",%progbits
	.ascii	"sin_approx\000\000\000\000\000\000\000\000\000\000\000"
	.ascii	"\000\271\000\000\000cos_approx\000\000\000\000\000\000"
	.ascii	"\000\000\000\000\000\000\277\000\000\000applyDeadba"
	.ascii	"nd\000\000\000\000\000\000\000\000\000\000\000\000\303"
	.ascii	"\000\000\000constrain\000\000\000\000\000\000\000\000"
	.ascii	"\000\000\000\000\313\000\000\000constrainf\000\000\000"
	.ascii	"\000\000\000\000\000\000\000\000\000\330\000\000\000"
	.ascii	"devClear\000\000\000\000\000\000\000\000\000\000\000"
	.ascii	"\000\342\000\000\000devPush\000\000\000\000\000\000"
	.ascii	"\000\000\000\000\000\000\371\000\000\000devVariance"
	.ascii	"\000\000\000\000\000\000\000\000\000\000\000\000\001"
	.ascii	"\001\000\000devStandardDeviation\000\000\000\000\000"
	.ascii	"\000\000\000\000\000\000\000\007\001\000\000degrees"
	.ascii	"ToRadians\000\000\000\000\000\000\000\000\000\000\000"
	.ascii	"\000\013\001\000\000scaleRange\000\000\000\000\000\000"
	.ascii	"\000\000\000\000\000\000\030\001\000\000normalizeV\000"
	.ascii	"\000\000\000\000\000\000\000\000\000\000\000*\001\000"
	.ascii	"\000buildRotationMatrix\000\000\000\000\000\000\000"
	.ascii	"\000\000\000\000\000>\001\000\000rotateV\000\000\000"
	.ascii	"\000\000\000\000\000\000\000\000\000a\001\000\000qu"
	.ascii	"ickMedianFilter3\000\000\000\000\000\000\000\000\000"
	.ascii	"\000\000\000j\001\000\000quickMedianFilter5\000\000"
	.ascii	"\000\000\000\000\000\000\000\000\000\000q\001\000\000"
	.ascii	"quickMedianFilter7\000\000\000\000\000\000\000\000\000"
	.ascii	"\000\000\000u\001\000\000quickMedianFilter9\000\000"
	.ascii	"\000\000\000\000\000\000\000\000\000\000y\001\000\000"
	.ascii	"arraySubInt32\000\000\000\000\000\000\000\000\000\000"
	.ascii	"\000\000}\001\000\000"
	.text
	.section	.gnu.lto_.opts,"",%progbits
	.ascii	"'-mthumb' '-mcpu=cortex-m3' '-ggdb3' '-Os' '-flto' "
	.ascii	"'-fuse-linker-plugin' '-ffunction-sections' '-fdata"
	.ascii	"-sections'\000"
	.text
	.cfi_sections	.debug_frame
	.global	__aeabi_f2iz
	.global	__aeabi_fsub
	.global	__aeabi_fcmpgt
	.global	__aeabi_fadd
	.global	__aeabi_fcmplt
	.global	__aeabi_fmul
	.section	.text.sin_approx,"ax",%progbits
	.align	1
	.global	sin_approx
	.thumb
	.thumb_func
	.type	sin_approx, %function
sin_approx:
.LFB0:
	.file 1 "./src/main/common/maths.c"
	.loc 1 42 0
	.cfi_startproc
	@ args = 0, pretend = 0, frame = 0
	@ frame_needed = 0, uses_anonymous_args = 0
.LVL0:
	push	{r4, r5, r6, lr}
	.cfi_def_cfa_offset 16
	.cfi_offset 4, -16
	.cfi_offset 5, -12
	.cfi_offset 6, -8
	.cfi_offset 14, -4
	.loc 1 42 0
	mov	r4, r0
.LVL1:
	.loc 1 43 0
	bl	__aeabi_f2iz
.LVL2:
	.loc 1 44 0
	adds	r0, r0, #32
	cmp	r0, #64
	bhi	.L17
.LVL3:
.L3:
.LBB4:
.LBB5:
	.loc 1 45 0
	mov	r0, r4
	ldr	r1, .L19
	bl	__aeabi_fcmpgt
.LVL4:
	cbz	r0, .L5
	mov	r0, r4
	ldr	r1, .L19+4
	bl	__aeabi_fsub
.LVL5:
	mov	r4, r0
.LVL6:
	b	.L3
.LVL7:
.L5:
	.loc 1 46 0
	mov	r0, r4
	ldr	r1, .L19+8
	bl	__aeabi_fcmplt
.LVL8:
	cbz	r0, .L18
	mov	r0, r4
	ldr	r1, .L19+4
	bl	__aeabi_fadd
.LVL9:
	mov	r4, r0
.LVL10:
	b	.L5
.LVL11:
.L18:
	.loc 1 47 0
	mov	r0, r4
	ldr	r1, .L19+12
	bl	__aeabi_fcmpgt
.LVL12:
	cbz	r0, .L14
	ldr	r1, .L19+12
	mov	r0, r4
	bl	__aeabi_fsub
.LVL13:
	mov	r1, r0
	ldr	r0, .L19+12
	b	.L15
.L14:
	.loc 1 48 0
	mov	r0, r4
	ldr	r1, .L19+16
	bl	__aeabi_fcmplt
.LVL14:
	cbz	r0, .L9
	ldr	r1, .L19+12
	mov	r0, r4
	bl	__aeabi_fadd
.LVL15:
	mov	r1, r0
	ldr	r0, .L19+16
.L15:
	bl	__aeabi_fsub
.LVL16:
	mov	r4, r0
.LVL17:
.L9:
	.loc 1 49 0
	mov	r1, r4
	mov	r0, r4
	bl	__aeabi_fmul
.LVL18:
	mov	r5, r0
.LVL19:
	.loc 1 50 0
	mov	r1, r5
	mov	r0, r4
.LVL20:
	bl	__aeabi_fmul
.LVL21:
	ldr	r1, .L19+20
	mov	r6, r0
	mov	r0, r5
	bl	__aeabi_fmul
.LVL22:
	ldr	r1, .L19+24
	bl	__aeabi_fsub
.LVL23:
	mov	r1, r0
	mov	r0, r5
	bl	__aeabi_fmul
.LVL24:
	ldr	r1, .L19+28
	bl	__aeabi_fadd
.LVL25:
	mov	r1, r0
	mov	r0, r5
	bl	__aeabi_fmul
.LVL26:
	ldr	r1, .L19+32
	bl	__aeabi_fsub
.LVL27:
	mov	r1, r0
	mov	r0, r6
	bl	__aeabi_fmul
.LVL28:
	mov	r1, r0
	mov	r0, r4
	bl	__aeabi_fadd
.LVL29:
	pop	{r4, r5, r6, pc}
.LVL30:
.L17:
.LBE5:
.LBE4:
	.loc 1 44 0
	movs	r0, #0
	.loc 1 51 0
	pop	{r4, r5, r6, pc}
.LVL31:
.L20:
	.align	2
.L19:
	.word	1078530011
	.word	1086918619
	.word	-1068953637
	.word	1070141403
	.word	-1077342245
	.word	909016218
	.word	961523706
	.word	1007191861
	.word	1042983588
	.cfi_endproc
.LFE0:
	.size	sin_approx, .-sin_approx
	.section	.text.cos_approx,"ax",%progbits
	.align	1
	.global	cos_approx
	.thumb
	.thumb_func
	.type	cos_approx, %function
cos_approx:
.LFB1:
	.loc 1 54 0
	.cfi_startproc
	@ args = 0, pretend = 0, frame = 0
	@ frame_needed = 0, uses_anonymous_args = 0
.LVL32:
	push	{r3, lr}
	.cfi_def_cfa_offset 8
	.cfi_offset 3, -8
	.cfi_offset 14, -4
	.loc 1 55 0
	ldr	r1, .L22
	bl	__aeabi_fadd
.LVL33:
	.loc 1 56 0
	pop	{r3, lr}
	.loc 1 55 0
	b	sin_approx
.LVL34:
.L23:
	.align	2
.L22:
	.word	1070141403
	.cfi_endproc
.LFE1:
	.size	cos_approx, .-cos_approx
	.section	.text.applyDeadband,"ax",%progbits
	.align	1
	.global	applyDeadband
	.thumb
	.thumb_func
	.type	applyDeadband, %function
applyDeadband:
.LFB2:
	.loc 1 60 0
	.cfi_startproc
	@ args = 0, pretend = 0, frame = 0
	@ frame_needed = 0, uses_anonymous_args = 0
	@ link register save eliminated.
.LVL35:
	.loc 1 61 0
	eor	r3, r0, r0, asr #31
	sub	r3, r3, r0, asr #31
	cmp	r3, r1
	blt	.L28
.LVL36:
.LBB8:
.LBB9:
	.loc 1 63 0
	cmp	r0, #0
	ble	.L26
	.loc 1 64 0
	subs	r0, r0, r1
.LVL37:
	bx	lr
.LVL38:
.L26:
	.loc 1 65 0
	beq	.L25
	.loc 1 66 0
	add	r0, r0, r1
.LVL39:
	bx	lr
.LVL40:
.L28:
.LBE9:
.LBE8:
	.loc 1 62 0
	movs	r0, #0
.LVL41:
.L25:
	.loc 1 69 0
	bx	lr
	.cfi_endproc
.LFE2:
	.size	applyDeadband, .-applyDeadband
	.section	.text.constrain,"ax",%progbits
	.align	1
	.global	constrain
	.thumb
	.thumb_func
	.type	constrain, %function
constrain:
.LFB3:
	.loc 1 72 0
	.cfi_startproc
	@ args = 0, pretend = 0, frame = 0
	@ frame_needed = 0, uses_anonymous_args = 0
	@ link register save eliminated.
.LVL42:
	.loc 1 73 0
	cmp	r0, r1
	blt	.L31
	cmp	r0, r2
	it	ge
	movge	r0, r2
.LVL43:
	bx	lr
.LVL44:
.L31:
	mov	r0, r1
.LVL45:
	.loc 1 79 0
	bx	lr
	.cfi_endproc
.LFE3:
	.size	constrain, .-constrain
	.section	.text.constrainf,"ax",%progbits
	.align	1
	.global	constrainf
	.thumb
	.thumb_func
	.type	constrainf, %function
constrainf:
.LFB4:
	.loc 1 82 0
	.cfi_startproc
	@ args = 0, pretend = 0, frame = 0
	@ frame_needed = 0, uses_anonymous_args = 0
.LVL46:
	push	{r4, r5, r6, lr}
	.cfi_def_cfa_offset 16
	.cfi_offset 4, -16
	.cfi_offset 5, -12
	.cfi_offset 6, -8
	.cfi_offset 14, -4
	.loc 1 82 0
	mov	r4, r0
	mov	r6, r1
	mov	r5, r2
	.loc 1 83 0
	bl	__aeabi_fcmplt
.LVL47:
	cbnz	r0, .L35
	.loc 1 85 0
	mov	r0, r4
	mov	r1, r5
	bl	__aeabi_fcmpgt
.LVL48:
	cbz	r0, .L38
	.loc 1 86 0
	mov	r0, r5
	pop	{r4, r5, r6, pc}
.LVL49:
.L35:
	.loc 1 84 0
	mov	r0, r6
	pop	{r4, r5, r6, pc}
.LVL50:
.L38:
	.loc 1 88 0
	mov	r0, r4
	.loc 1 89 0
	pop	{r4, r5, r6, pc}
	.cfi_endproc
.LFE4:
	.size	constrainf, .-constrainf
	.section	.text.devClear,"ax",%progbits
	.align	1
	.global	devClear
	.thumb
	.thumb_func
	.type	devClear, %function
devClear:
.LFB5:
	.loc 1 92 0
	.cfi_startproc
	@ args = 0, pretend = 0, frame = 0
	@ frame_needed = 0, uses_anonymous_args = 0
	@ link register save eliminated.
.LVL51:
	.loc 1 93 0
	movs	r3, #0
	str	r3, [r0, #16]
	bx	lr
	.cfi_endproc
.LFE5:
	.size	devClear, .-devClear
	.global	__aeabi_i2f
	.global	__aeabi_fdiv
	.section	.text.devPush,"ax",%progbits
	.align	1
	.global	devPush
	.thumb
	.thumb_func
	.type	devPush, %function
devPush:
.LFB6:
	.loc 1 97 0
	.cfi_startproc
	@ args = 0, pretend = 0, frame = 0
	@ frame_needed = 0, uses_anonymous_args = 0
.LVL52:
	push	{r4, r5, r6, r7, r8, lr}
	.cfi_def_cfa_offset 24
	.cfi_offset 4, -24
	.cfi_offset 5, -20
	.cfi_offset 6, -16
	.cfi_offset 7, -12
	.cfi_offset 8, -8
	.cfi_offset 14, -4
	.loc 1 98 0
	ldr	r6, [r0, #16]
	.loc 1 97 0
	mov	r4, r0
	.loc 1 98 0
	adds	r6, r6, #1
	.loc 1 99 0
	cmp	r6, #1
	.loc 1 97 0
	mov	r5, r1
	.loc 1 98 0
	str	r6, [r0, #16]
	.loc 1 99 0
	bne	.L41
	.loc 1 101 0
	movs	r3, #0
	.loc 1 100 0
	str	r1, [r4, #4]	@ float
	str	r1, [r4]	@ float
	.loc 1 101 0
	str	r3, [r0, #8]	@ float
	pop	{r4, r5, r6, r7, r8, pc}
.L41:
	.loc 1 103 0
	ldr	r8, [r0]	@ float
	mov	r0, r1
.LVL53:
	mov	r1, r8
.LVL54:
	bl	__aeabi_fsub
.LVL55:
	mov	r7, r0
	mov	r0, r6
	bl	__aeabi_i2f
.LVL56:
	mov	r1, r0
	mov	r0, r7
	bl	__aeabi_fdiv
.LVL57:
	mov	r1, r0
	mov	r0, r8
	bl	__aeabi_fadd
.LVL58:
	mov	r6, r0
	str	r0, [r4, #4]	@ float
	.loc 1 104 0
	mov	r1, r6
	mov	r0, r5
	bl	__aeabi_fsub
.LVL59:
	mov	r1, r0
	mov	r0, r7
	bl	__aeabi_fmul
.LVL60:
	ldr	r1, [r4, #8]	@ float
	bl	__aeabi_fadd
.LVL61:
	.loc 1 105 0
	str	r6, [r4]	@ float
	.loc 1 104 0
	str	r0, [r4, #12]	@ float
	.loc 1 106 0
	str	r0, [r4, #8]	@ float
	pop	{r4, r5, r6, r7, r8, pc}
	.cfi_endproc
.LFE6:
	.size	devPush, .-devPush
	.section	.text.devVariance,"ax",%progbits
	.align	1
	.global	devVariance
	.thumb
	.thumb_func
	.type	devVariance, %function
devVariance:
.LFB7:
	.loc 1 111 0
	.cfi_startproc
	@ args = 0, pretend = 0, frame = 0
	@ frame_needed = 0, uses_anonymous_args = 0
.LVL62:
	push	{r4, lr}
	.cfi_def_cfa_offset 8
	.cfi_offset 4, -8
	.cfi_offset 14, -4
	.loc 1 111 0
	mov	r4, r0
	.loc 1 112 0
	ldr	r0, [r0, #16]
.LVL63:
	cmp	r0, #1
	ble	.L45
	.loc 1 112 0 is_stmt 0 discriminator 1
	subs	r0, r0, #1
	bl	__aeabi_i2f
.LVL64:
	mov	r1, r0
	ldr	r0, [r4, #12]	@ float
	bl	__aeabi_fdiv
.LVL65:
	pop	{r4, pc}
.LVL66:
.L45:
	.loc 1 112 0
	movs	r0, #0
	.loc 1 113 0 is_stmt 1
	pop	{r4, pc}
	.cfi_endproc
.LFE7:
	.size	devVariance, .-devVariance
	.section	.text.devStandardDeviation,"ax",%progbits
	.align	1
	.global	devStandardDeviation
	.thumb
	.thumb_func
	.type	devStandardDeviation, %function
devStandardDeviation:
.LFB8:
	.loc 1 116 0
	.cfi_startproc
	@ args = 0, pretend = 0, frame = 0
	@ frame_needed = 0, uses_anonymous_args = 0
.LVL67:
	push	{r3, lr}
	.cfi_def_cfa_offset 8
	.cfi_offset 3, -8
	.cfi_offset 14, -4
	.loc 1 117 0
	bl	devVariance
.LVL68:
	.loc 1 118 0
	pop	{r3, lr}
	.loc 1 117 0
	b	sqrtf
.LVL69:
	.cfi_endproc
.LFE8:
	.size	devStandardDeviation, .-devStandardDeviation
	.section	.text.degreesToRadians,"ax",%progbits
	.align	1
	.global	degreesToRadians
	.thumb
	.thumb_func
	.type	degreesToRadians, %function
degreesToRadians:
.LFB9:
	.loc 1 121 0
	.cfi_startproc
	@ args = 0, pretend = 0, frame = 0
	@ frame_needed = 0, uses_anonymous_args = 0
.LVL70:
	push	{r3, lr}
	.cfi_def_cfa_offset 8
	.cfi_offset 3, -8
	.cfi_offset 14, -4
	.loc 1 122 0
	bl	__aeabi_i2f
.LVL71:
	ldr	r1, .L48
	bl	__aeabi_fmul
.LVL72:
	.loc 1 123 0
	pop	{r3, pc}
.L49:
	.align	2
.L48:
	.word	1016003125
	.cfi_endproc
.LFE9:
	.size	degreesToRadians, .-degreesToRadians
	.section	.text.scaleRange,"ax",%progbits
	.align	1
	.global	scaleRange
	.thumb
	.thumb_func
	.type	scaleRange, %function
scaleRange:
.LFB10:
	.loc 1 125 0
	.cfi_startproc
	@ args = 4, pretend = 0, frame = 0
	@ frame_needed = 0, uses_anonymous_args = 0
.LVL73:
	push	{r4, lr}
	.cfi_def_cfa_offset 8
	.cfi_offset 4, -8
	.cfi_offset 14, -4
.LVL74:
	.loc 1 126 0
	ldr	r4, [sp, #8]
	subs	r0, r0, r1
.LVL75:
	subs	r4, r4, r3
	muls	r4, r0, r4
.LVL76:
	.loc 1 127 0
	subs	r2, r2, r1
.LVL77:
	.loc 1 128 0
	sdiv	r0, r4, r2
	.loc 1 129 0
	add	r0, r0, r3
	pop	{r4, pc}
	.cfi_endproc
.LFE10:
	.size	scaleRange, .-scaleRange
	.global	__aeabi_fcmpeq
	.section	.text.normalizeV,"ax",%progbits
	.align	1
	.global	normalizeV
	.thumb
	.thumb_func
	.type	normalizeV, %function
normalizeV:
.LFB11:
	.loc 1 133 0
	.cfi_startproc
	@ args = 0, pretend = 0, frame = 0
	@ frame_needed = 0, uses_anonymous_args = 0
.LVL78:
	push	{r4, r5, r6, r7, r8, lr}
	.cfi_def_cfa_offset 24
	.cfi_offset 4, -24
	.cfi_offset 5, -20
	.cfi_offset 6, -16
	.cfi_offset 7, -12
	.cfi_offset 8, -8
	.cfi_offset 14, -4
	.loc 1 133 0
	mov	r4, r0
	.loc 1 136 0
	ldr	r0, [r0]	@ float
.LVL79:
	.loc 1 133 0
	mov	r5, r1
	.loc 1 136 0
	mov	r1, r0
.LVL80:
	bl	__aeabi_fmul
.LVL81:
	ldr	r8, [r4, #4]	@ float
	mov	r6, r0
	mov	r1, r8
	mov	r0, r8
	bl	__aeabi_fmul
.LVL82:
	mov	r1, r0
	mov	r0, r6
	bl	__aeabi_fadd
.LVL83:
	ldr	r7, [r4, #8]	@ float
	mov	r6, r0
	mov	r1, r7
	mov	r0, r7
	bl	__aeabi_fmul
.LVL84:
	mov	r1, r0
	mov	r0, r6
	bl	__aeabi_fadd
.LVL85:
	bl	sqrtf
.LVL86:
	.loc 1 137 0
	movs	r1, #0
	.loc 1 136 0
	mov	r6, r0
.LVL87:
	.loc 1 137 0
	bl	__aeabi_fcmpeq
.LVL88:
	cbnz	r0, .L51
	.loc 1 138 0
	ldr	r0, [r4]	@ float
	mov	r1, r6
	bl	__aeabi_fdiv
.LVL89:
	.loc 1 139 0
	mov	r1, r6
	.loc 1 138 0
	str	r0, [r5]	@ float
	.loc 1 139 0
	ldr	r0, [r4, #4]	@ float
	bl	__aeabi_fdiv
.LVL90:
	.loc 1 140 0
	mov	r1, r6
	.loc 1 139 0
	str	r0, [r5, #4]	@ float
	.loc 1 140 0
	ldr	r0, [r4, #8]	@ float
	bl	__aeabi_fdiv
.LVL91:
	str	r0, [r5, #8]	@ float
.L51:
	pop	{r4, r5, r6, r7, r8, pc}
	.cfi_endproc
.LFE11:
	.size	normalizeV, .-normalizeV
	.section	.text.buildRotationMatrix,"ax",%progbits
	.align	1
	.global	buildRotationMatrix
	.thumb
	.thumb_func
	.type	buildRotationMatrix, %function
buildRotationMatrix:
.LFB12:
	.loc 1 145 0
	.cfi_startproc
	@ args = 0, pretend = 0, frame = 16
	@ frame_needed = 0, uses_anonymous_args = 0
.LVL92:
	push	{r4, r5, r6, r7, r8, r9, r10, fp, lr}
	.cfi_def_cfa_offset 36
	.cfi_offset 4, -36
	.cfi_offset 5, -32
	.cfi_offset 6, -28
	.cfi_offset 7, -24
	.cfi_offset 8, -20
	.cfi_offset 9, -16
	.cfi_offset 10, -12
	.cfi_offset 11, -8
	.cfi_offset 14, -4
	.loc 1 149 0
	ldr	r5, [r0]	@ float
	.loc 1 145 0
	sub	sp, sp, #20
	.cfi_def_cfa_offset 56
	.loc 1 145 0
	mov	r9, r0
	.loc 1 149 0
	mov	r0, r5
.LVL93:
	.loc 1 145 0
	mov	r4, r1
	.loc 1 149 0
	bl	cos_approx
.LVL94:
	mov	r7, r0
.LVL95:
	.loc 1 150 0
	mov	r0, r5
.LVL96:
	bl	sin_approx
.LVL97:
	.loc 1 151 0
	ldr	r5, [r9, #4]	@ float
	.loc 1 150 0
	mov	r8, r0
.LVL98:
	.loc 1 151 0
	mov	r0, r5
.LVL99:
	bl	cos_approx
.LVL100:
	mov	r6, r0
.LVL101:
	.loc 1 152 0
	mov	r0, r5
.LVL102:
	bl	sin_approx
.LVL103:
	.loc 1 153 0
	ldr	r9, [r9, #8]	@ float
.LVL104:
	.loc 1 152 0
	mov	r5, r0
.LVL105:
	.loc 1 153 0
	mov	r0, r9
.LVL106:
	bl	cos_approx
.LVL107:
	mov	r10, r0
.LVL108:
	.loc 1 154 0
	mov	r0, r9
.LVL109:
	bl	sin_approx
.LVL110:
	.loc 1 156 0
	mov	r1, r7
	.loc 1 154 0
	mov	r9, r0
.LVL111:
	.loc 1 156 0
	mov	r0, r10
.LVL112:
	bl	__aeabi_fmul
.LVL113:
	.loc 1 157 0
	mov	r1, r7
	.loc 1 156 0
	mov	fp, r0
.LVL114:
	.loc 1 157 0
	mov	r0, r9
.LVL115:
	bl	__aeabi_fmul
.LVL116:
	.loc 1 158 0
	mov	r1, r10
	.loc 1 157 0
	str	r0, [sp, #4]	@ float
.LVL117:
	.loc 1 158 0
	mov	r0, r8
.LVL118:
	bl	__aeabi_fmul
.LVL119:
	.loc 1 159 0
	mov	r1, r9
	.loc 1 158 0
	str	r0, [sp, #8]	@ float
.LVL120:
	.loc 1 159 0
	mov	r0, r8
.LVL121:
	bl	__aeabi_fmul
.LVL122:
	.loc 1 161 0
	mov	r1, r6
	.loc 1 159 0
	str	r0, [sp, #12]	@ float
.LVL123:
	.loc 1 161 0
	mov	r0, r10
.LVL124:
	bl	__aeabi_fmul
.LVL125:
	.loc 1 162 0
	mov	r1, r9
	.loc 1 161 0
	str	r0, [r4]	@ float
	.loc 1 162 0
	add	r0, r6, #-2147483648
	bl	__aeabi_fmul
.LVL126:
	.loc 1 164 0
	mov	r1, r5
	.loc 1 162 0
	str	r0, [r4, #4]	@ float
	.loc 1 163 0
	str	r5, [r4, #8]	@ float
	.loc 1 164 0
	ldr	r0, [sp, #8]	@ float
	bl	__aeabi_fmul
.LVL127:
	mov	r1, r0
	ldr	r0, [sp, #4]	@ float
	bl	__aeabi_fadd
.LVL128:
	.loc 1 165 0
	mov	r1, r5
	.loc 1 164 0
	str	r0, [r4, #12]	@ float
	.loc 1 165 0
	ldr	r0, [sp, #12]	@ float
	bl	__aeabi_fmul
.LVL129:
	mov	r1, r0
	mov	r0, fp
	bl	__aeabi_fsub
.LVL130:
	.loc 1 166 0
	mov	r1, r6
	.loc 1 165 0
	str	r0, [r4, #16]	@ float
	.loc 1 166 0
	add	r0, r8, #-2147483648
	bl	__aeabi_fmul
.LVL131:
	.loc 1 167 0
	mov	r1, r5
	.loc 1 166 0
	str	r0, [r4, #20]	@ float
	.loc 1 167 0
	mov	r0, fp
	bl	__aeabi_fmul
.LVL132:
	mov	r1, r0
	ldr	r0, [sp, #12]	@ float
	bl	__aeabi_fsub
.LVL133:
	.loc 1 168 0
	mov	r1, r5
	.loc 1 167 0
	str	r0, [r4, #24]	@ float
	.loc 1 168 0
	ldr	r0, [sp, #4]	@ float
	bl	__aeabi_fmul
.LVL134:
	mov	r1, r0
	ldr	r0, [sp, #8]	@ float
	bl	__aeabi_fadd
.LVL135:
	.loc 1 169 0
	mov	r1, r7
	.loc 1 168 0
	str	r0, [r4, #28]	@ float
	.loc 1 169 0
	mov	r0, r6
	bl	__aeabi_fmul
.LVL136:
	str	r0, [r4, #32]	@ float
	.loc 1 170 0
	add	sp, sp, #20
	@ sp needed
	pop	{r4, r5, r6, r7, r8, r9, r10, fp, pc}
	.cfi_endproc
.LFE12:
	.size	buildRotationMatrix, .-buildRotationMatrix
	.section	.text.rotateV,"ax",%progbits
	.align	1
	.global	rotateV
	.thumb
	.thumb_func
	.type	rotateV, %function
rotateV:
.LFB13:
	.loc 1 174 0
	.cfi_startproc
	@ args = 0, pretend = 0, frame = 40
	@ frame_needed = 0, uses_anonymous_args = 0
.LVL137:
	push	{r4, r5, r6, r7, r8, lr}
	.cfi_def_cfa_offset 24
	.cfi_offset 4, -24
	.cfi_offset 5, -20
	.cfi_offset 6, -16
	.cfi_offset 7, -12
	.cfi_offset 8, -8
	.cfi_offset 14, -4
	.loc 1 175 0
	ldr	r7, [r0]	@ float
.LVL138:
	.loc 1 174 0
	sub	sp, sp, #40
	.cfi_def_cfa_offset 64
	.loc 1 175 0
	ldr	r6, [r0, #4]	@ float
.LVL139:
	ldr	r5, [r0, #8]	@ float
.LVL140:
	.loc 1 174 0
	mov	r4, r0
	.loc 1 179 0
	mov	r0, r1
.LVL141:
	add	r1, sp, #4
.LVL142:
	bl	buildRotationMatrix
.LVL143:
	.loc 1 181 0
	ldr	r1, [sp, #4]	@ float
	mov	r0, r7
	bl	__aeabi_fmul
.LVL144:
	ldr	r1, [sp, #16]	@ float
	mov	r8, r0
	mov	r0, r6
	bl	__aeabi_fmul
.LVL145:
	mov	r1, r0
	mov	r0, r8
	bl	__aeabi_fadd
.LVL146:
	ldr	r1, [sp, #28]	@ float
	mov	r8, r0
	mov	r0, r5
	bl	__aeabi_fmul
.LVL147:
	mov	r1, r0
	mov	r0, r8
	bl	__aeabi_fadd
.LVL148:
	.loc 1 182 0
	ldr	r1, [sp, #8]	@ float
	.loc 1 181 0
	str	r0, [r4]	@ float
	.loc 1 182 0
	mov	r0, r7
	bl	__aeabi_fmul
.LVL149:
	ldr	r1, [sp, #20]	@ float
	mov	r8, r0
	mov	r0, r6
	bl	__aeabi_fmul
.LVL150:
	mov	r1, r0
	mov	r0, r8
	bl	__aeabi_fadd
.LVL151:
	ldr	r1, [sp, #32]	@ float
	mov	r8, r0
	mov	r0, r5
	bl	__aeabi_fmul
.LVL152:
	mov	r1, r0
	mov	r0, r8
	bl	__aeabi_fadd
.LVL153:
	.loc 1 183 0
	ldr	r1, [sp, #12]	@ float
	.loc 1 182 0
	str	r0, [r4, #4]	@ float
	.loc 1 183 0
	mov	r0, r7
	bl	__aeabi_fmul
.LVL154:
	ldr	r1, [sp, #24]	@ float
	mov	r7, r0
.LVL155:
	mov	r0, r6
	bl	__aeabi_fmul
.LVL156:
	mov	r1, r0
	mov	r0, r7
	bl	__aeabi_fadd
.LVL157:
	ldr	r1, [sp, #36]	@ float
	mov	r6, r0
.LVL158:
	mov	r0, r5
	bl	__aeabi_fmul
.LVL159:
	mov	r1, r0
	mov	r0, r6
	bl	__aeabi_fadd
.LVL160:
	str	r0, [r4, #8]	@ float
	.loc 1 184 0
	add	sp, sp, #40
	@ sp needed
	pop	{r4, r5, r6, r7, r8, pc}
	.cfi_endproc
.LFE13:
	.size	rotateV, .-rotateV
	.section	.text.quickMedianFilter3,"ax",%progbits
	.align	1
	.global	quickMedianFilter3
	.thumb
	.thumb_func
	.type	quickMedianFilter3, %function
quickMedianFilter3:
.LFB14:
	.loc 1 194 0
	.cfi_startproc
	@ args = 0, pretend = 0, frame = 0
	@ frame_needed = 0, uses_anonymous_args = 0
	@ link register save eliminated.
.LVL161:
.LBB10:
	.loc 1 196 0
	ldr	r3, [r0]
.LVL162:
	ldr	r2, [r0, #4]
.LVL163:
	ldr	r1, [r0, #8]
.LVL164:
.LBE10:
	.loc 1 198 0
	cmp	r3, r2
	ble	.L58
	mov	r0, r3
.LVL165:
	mov	r3, r2
.LVL166:
	mov	r2, r0
.LVL167:
.L58:
	cmp	r2, r1
	ite	lt
	movlt	r0, r2
	movge	r0, r1
.LVL168:
	.loc 1 200 0 discriminator 2
	cmp	r0, r3
	it	lt
	movlt	r0, r3
.LVL169:
	bx	lr
	.cfi_endproc
.LFE14:
	.size	quickMedianFilter3, .-quickMedianFilter3
	.section	.text.quickMedianFilter5,"ax",%progbits
	.align	1
	.global	quickMedianFilter5
	.thumb
	.thumb_func
	.type	quickMedianFilter5, %function
quickMedianFilter5:
.LFB15:
	.loc 1 203 0
	.cfi_startproc
	@ args = 0, pretend = 0, frame = 24
	@ frame_needed = 0, uses_anonymous_args = 0
	@ link register save eliminated.
.LVL170:
	sub	sp, sp, #24
	.cfi_def_cfa_offset 24
	.loc 1 203 0
	movs	r3, #0
.LVL171:
.L61:
.LBB11:
	.loc 1 205 0 discriminator 2
	ldr	r2, [r0, r3]
	add	r1, sp, #4
	str	r2, [r3, r1]
	adds	r3, r3, #4
	cmp	r3, #20
	bne	.L61
.LBE11:
	.loc 1 207 0
	ldr	r2, [sp, #8]
	ldr	r3, [sp, #4]
	cmp	r3, r2
.LVL172:
.LBB12:
	itt	gt
	strgt	r3, [sp, #8]
	strgt	r2, [sp, #4]
.LBE12:
	ldr	r3, [sp, #16]
.LVL173:
	ldr	r2, [sp, #20]
	cmp	r3, r2
.LVL174:
.LBB13:
	itt	gt
	strgt	r2, [sp, #16]
	strgt	r3, [sp, #20]
.LBE13:
	ldr	r2, [sp, #16]
	ldr	r3, [sp, #4]
.LVL175:
	cmp	r3, r2
.LVL176:
.LBB14:
	it	gt
	strgt	r3, [sp, #16]
.LBE14:
	.loc 1 208 0
	ldr	r2, [sp, #8]
	ldr	r3, [sp, #20]
.LVL177:
	cmp	r2, r3
.LVL178:
.LBB15:
	it	gt
	strgt	r3, [sp, #8]
.LBE15:
	ldr	r2, [sp, #12]
.LVL179:
	ldr	r3, [sp, #8]
	cmp	r3, r2
.LVL180:
.LBB16:
	itt	gt
	strgt	r3, [sp, #12]
	strgt	r2, [sp, #8]
.LBE16:
	ldr	r3, [sp, #16]
.LVL181:
	ldr	r2, [sp, #12]
	cmp	r2, r3
.LVL182:
.LBB17:
	it	gt
	strgt	r3, [sp, #12]
.LBE17:
	.loc 1 209 0
	ldr	r2, [sp, #12]
.LVL183:
	ldr	r3, [sp, #8]
	cmp	r3, r2
.LVL184:
.LBB18:
	it	gt
	strgt	r3, [sp, #12]
.LBE18:
	.loc 1 211 0
	ldr	r0, [sp, #12]
.LVL185:
	add	sp, sp, #24
	@ sp needed
	bx	lr
	.cfi_endproc
.LFE15:
	.size	quickMedianFilter5, .-quickMedianFilter5
	.section	.text.quickMedianFilter7,"ax",%progbits
	.align	1
	.global	quickMedianFilter7
	.thumb
	.thumb_func
	.type	quickMedianFilter7, %function
quickMedianFilter7:
.LFB16:
	.loc 1 214 0
	.cfi_startproc
	@ args = 0, pretend = 0, frame = 32
	@ frame_needed = 0, uses_anonymous_args = 0
	@ link register save eliminated.
.LVL186:
	sub	sp, sp, #32
	.cfi_def_cfa_offset 32
	.loc 1 214 0
	movs	r3, #0
.LVL187:
.L72:
.LBB19:
	.loc 1 216 0 discriminator 2
	ldr	r2, [r0, r3]
	add	r1, sp, #4
	str	r2, [r3, r1]
	adds	r3, r3, #4
	cmp	r3, #28
	bne	.L72
.LBE19:
	.loc 1 218 0
	ldr	r3, [sp, #4]
	ldr	r2, [sp, #24]
	cmp	r3, r2
.LVL188:
.LBB20:
	itt	gt
	strgt	r2, [sp, #4]
	strgt	r3, [sp, #24]
.LBE20:
	ldr	r2, [sp, #16]
	ldr	r3, [sp, #4]
.LVL189:
	cmp	r3, r2
.LVL190:
.LBB21:
	itt	gt
	strgt	r3, [sp, #16]
	strgt	r2, [sp, #4]
.LBE21:
	ldr	r3, [sp, #8]
.LVL191:
	ldr	r2, [sp, #28]
	cmp	r3, r2
.LVL192:
.LBB22:
	itt	gt
	strgt	r3, [sp, #28]
	strgt	r2, [sp, #8]
.LBE22:
	.loc 1 219 0
	ldr	r3, [sp, #12]
.LVL193:
	ldr	r2, [sp, #20]
	cmp	r3, r2
.LVL194:
.LBB23:
	itt	gt
	strgt	r2, [sp, #12]
	strgt	r3, [sp, #20]
.LBE23:
	ldr	r2, [sp, #8]
	ldr	r3, [sp, #4]
.LVL195:
	cmp	r3, r2
.LVL196:
.LBB24:
	it	gt
	strgt	r3, [sp, #8]
.LBE24:
	ldr	r2, [sp, #24]
	ldr	r3, [sp, #16]
.LVL197:
	cmp	r3, r2
.LVL198:
.LBB25:
	itt	gt
	strgt	r2, [sp, #16]
	strgt	r3, [sp, #24]
.LBE25:
	.loc 1 220 0
	ldr	r2, [sp, #28]
	ldr	r3, [sp, #12]
.LVL199:
	cmp	r3, r2
.LVL200:
.LBB26:
	itt	gt
	strgt	r2, [sp, #12]
	strgt	r3, [sp, #28]
.LBE26:
	ldr	r2, [sp, #16]
	ldr	r3, [sp, #12]
.LVL201:
	cmp	r3, r2
.LVL202:
.LBB27:
	it	gt
	strgt	r3, [sp, #16]
.LBE27:
	ldr	r2, [sp, #16]
	ldr	r3, [sp, #28]
.LVL203:
	cmp	r2, r3
.LVL204:
.LBB28:
	it	gt
	strgt	r3, [sp, #16]
.LBE28:
	.loc 1 221 0
	ldr	r2, [sp, #20]
.LVL205:
	ldr	r3, [sp, #24]
	cmp	r2, r3
.LVL206:
.LBB29:
	it	gt
	strgt	r3, [sp, #20]
.LBE29:
	ldr	r3, [sp, #8]
	ldr	r2, [sp, #20]
.LVL207:
	cmp	r3, r2
.LVL208:
.LBB30:
	itt	gt
	strgt	r2, [sp, #8]
	strgt	r3, [sp, #20]
.LBE30:
	ldr	r2, [sp, #16]
	ldr	r3, [sp, #8]
.LVL209:
	cmp	r3, r2
.LVL210:
.LBB31:
	it	gt
	strgt	r3, [sp, #16]
.LBE31:
	.loc 1 222 0
	ldr	r2, [sp, #16]
	ldr	r3, [sp, #20]
.LVL211:
	cmp	r2, r3
.LVL212:
.LBB32:
	it	gt
	strgt	r3, [sp, #16]
.LBE32:
	.loc 1 224 0
	ldr	r0, [sp, #16]
.LVL213:
	add	sp, sp, #32
.LVL214:
	@ sp needed
	bx	lr
	.cfi_endproc
.LFE16:
	.size	quickMedianFilter7, .-quickMedianFilter7
	.section	.text.quickMedianFilter9,"ax",%progbits
	.align	1
	.global	quickMedianFilter9
	.thumb
	.thumb_func
	.type	quickMedianFilter9, %function
quickMedianFilter9:
.LFB17:
	.loc 1 227 0
	.cfi_startproc
	@ args = 0, pretend = 0, frame = 40
	@ frame_needed = 0, uses_anonymous_args = 0
	@ link register save eliminated.
.LVL215:
	sub	sp, sp, #40
	.cfi_def_cfa_offset 40
	.loc 1 227 0
	movs	r3, #0
.LVL216:
.L89:
.LBB33:
	.loc 1 229 0 discriminator 2
	ldr	r2, [r0, r3]
	add	r1, sp, #4
	str	r2, [r3, r1]
	adds	r3, r3, #4
	cmp	r3, #36
	bne	.L89
.LBE33:
	.loc 1 231 0
	ldr	r3, [sp, #8]
	ldr	r2, [sp, #12]
	cmp	r3, r2
.LVL217:
.LBB34:
	itt	gt
	strgt	r2, [sp, #8]
	strgt	r3, [sp, #12]
.LBE34:
	ldr	r2, [sp, #24]
	ldr	r3, [sp, #20]
.LVL218:
	cmp	r3, r2
.LVL219:
.LBB35:
	itt	gt
	strgt	r2, [sp, #20]
	strgt	r3, [sp, #24]
.LBE35:
	ldr	r2, [sp, #36]
	ldr	r3, [sp, #32]
.LVL220:
	cmp	r3, r2
.LVL221:
.LBB36:
	itt	gt
	strgt	r2, [sp, #32]
	strgt	r3, [sp, #36]
.LBE36:
	.loc 1 232 0
	ldr	r2, [sp, #8]
	ldr	r3, [sp, #4]
.LVL222:
	cmp	r3, r2
.LVL223:
.LBB37:
	itt	gt
	strgt	r3, [sp, #8]
	strgt	r2, [sp, #4]
.LBE37:
	ldr	r3, [sp, #16]
.LVL224:
	ldr	r2, [sp, #20]
	cmp	r3, r2
.LVL225:
.LBB38:
	itt	gt
	strgt	r3, [sp, #20]
	strgt	r2, [sp, #16]
.LBE38:
	ldr	r3, [sp, #28]
.LVL226:
	ldr	r2, [sp, #32]
	cmp	r3, r2
.LVL227:
.LBB39:
	itt	gt
	strgt	r3, [sp, #32]
	strgt	r2, [sp, #28]
.LBE39:
	.loc 1 233 0
	ldr	r3, [sp, #8]
.LVL228:
	ldr	r2, [sp, #12]
	cmp	r3, r2
.LVL229:
.LBB40:
	itt	gt
	strgt	r2, [sp, #8]
	strgt	r3, [sp, #12]
.LBE40:
	ldr	r2, [sp, #24]
	ldr	r3, [sp, #20]
.LVL230:
	cmp	r3, r2
.LVL231:
.LBB41:
	itt	gt
	strgt	r2, [sp, #20]
	strgt	r3, [sp, #24]
.LBE41:
	ldr	r2, [sp, #36]
	ldr	r3, [sp, #32]
.LVL232:
	cmp	r3, r2
.LVL233:
.LBB42:
	itt	gt
	strgt	r2, [sp, #32]
	strgt	r3, [sp, #36]
.LBE42:
	.loc 1 234 0
	ldr	r2, [sp, #16]
	ldr	r3, [sp, #4]
.LVL234:
	cmp	r3, r2
.LVL235:
.LBB43:
	it	gt
	strgt	r3, [sp, #16]
.LBE43:
	ldr	r2, [sp, #24]
	ldr	r3, [sp, #36]
.LVL236:
	cmp	r2, r3
.LVL237:
.LBB44:
	it	gt
	strgt	r3, [sp, #24]
.LBE44:
	ldr	r2, [sp, #32]
.LVL238:
	ldr	r3, [sp, #20]
	cmp	r3, r2
.LVL239:
.LBB45:
	itt	gt
	strgt	r2, [sp, #20]
	strgt	r3, [sp, #32]
.LBE45:
	.loc 1 235 0
	ldr	r2, [sp, #28]
	ldr	r3, [sp, #16]
.LVL240:
	cmp	r3, r2
.LVL241:
.LBB46:
	it	gt
	strgt	r3, [sp, #28]
.LBE46:
	ldr	r2, [sp, #20]
	ldr	r3, [sp, #8]
.LVL242:
	cmp	r3, r2
.LVL243:
.LBB47:
	it	gt
	strgt	r3, [sp, #20]
.LBE47:
	ldr	r2, [sp, #12]
	ldr	r3, [sp, #24]
.LVL244:
	cmp	r2, r3
.LVL245:
.LBB48:
	it	gt
	strgt	r3, [sp, #12]
.LBE48:
	.loc 1 236 0
	ldr	r2, [sp, #20]
.LVL246:
	ldr	r3, [sp, #32]
	cmp	r2, r3
.LVL247:
.LBB49:
	it	gt
	strgt	r3, [sp, #20]
.LBE49:
	ldr	r3, [sp, #20]
	ldr	r2, [sp, #12]
.LVL248:
	cmp	r3, r2
.LVL249:
.LBB50:
	it	gt
	strgt	r2, [sp, #20]
.LBE50:
	ldr	r2, [sp, #20]
.LBB51:
	it	gt
	strgt	r3, [sp, #12]
.LBE51:
	ldr	r3, [sp, #28]
.LVL250:
	cmp	r3, r2
.LVL251:
.LBB52:
	it	gt
	strgt	r3, [sp, #20]
.LBE52:
	.loc 1 237 0
	ldr	r2, [sp, #20]
	ldr	r3, [sp, #12]
.LVL252:
	cmp	r2, r3
.LVL253:
.LBB53:
	it	gt
	strgt	r3, [sp, #20]
.LBE53:
	.loc 1 239 0
	ldr	r0, [sp, #20]
.LVL254:
	add	sp, sp, #40
.LVL255:
	@ sp needed
	bx	lr
	.cfi_endproc
.LFE17:
	.size	quickMedianFilter9, .-quickMedianFilter9
	.section	.text.arraySubInt32,"ax",%progbits
	.align	1
	.global	arraySubInt32
	.thumb
	.thumb_func
	.type	arraySubInt32, %function
arraySubInt32:
.LFB18:
	.loc 1 242 0
	.cfi_startproc
	@ args = 0, pretend = 0, frame = 0
	@ frame_needed = 0, uses_anonymous_args = 0
.LVL256:
	push	{r4, r5, r6, r7, lr}
	.cfi_def_cfa_offset 20
	.cfi_offset 4, -20
	.cfi_offset 5, -16
	.cfi_offset 6, -12
	.cfi_offset 7, -8
	.cfi_offset 14, -4
.LBB54:
	.loc 1 243 0
	movs	r4, #0
	mov	r5, r4
.LVL257:
.L111:
	.loc 1 243 0 is_stmt 0 discriminator 1
	cmp	r5, r3
	bge	.L113
	.loc 1 244 0 is_stmt 1 discriminator 2
	ldr	r7, [r1, r4]
	ldr	r6, [r2, r4]
	.loc 1 243 0 discriminator 2
	adds	r5, r5, #1
.LVL258:
	.loc 1 244 0 discriminator 2
	subs	r6, r7, r6
	str	r6, [r0, r4]
	adds	r4, r4, #4
	b	.L111
.L113:
.LBE54:
	.loc 1 246 0
	pop	{r4, r5, r6, r7, pc}
	.cfi_endproc
.LFE18:
	.size	arraySubInt32, .-arraySubInt32
	.text
.Letext0:
	.file 2 "/usr/local/gcc-arm-none-eabi-4_8-2014q3/arm-none-eabi/include/machine/_default_types.h"
	.file 3 "/usr/local/gcc-arm-none-eabi-4_8-2014q3/arm-none-eabi/include/stdint.h"
	.file 4 "./src/main/common/maths.h"
	.file 5 "./src/main/common/axis.h"
	.file 6 "/usr/local/gcc-arm-none-eabi-4_8-2014q3/arm-none-eabi/include/math.h"